Certificate:
    Data:
        Version: 3 (0x2)
        Serial Number:
            9d:d7:81:c5:e3:a0:07:e3:f6:3f:47:5d:62:54:96
    Signature Algorithm: sha256WithRSAEncryption
        Issuer: C=CN, O=Nationsky, CN=Root CA
        Validity
            Not Before: Mar 31 04:15:00 2017 GMT
            Not After : Mar 29 04:15:00 2027 GMT
        Subject: C=CN, O=Nationsky, CN=Root CA
        Subject Public Key Info:
            Public Key Algorithm: rsaEncryption
                Public-Key: (4096 bit)
                Modulus:
                    00:a3:ab:42:77:64:10:83:14:b9:67:55:e4:c0:65:
                    60:e4:b5:ac:56:f5:22:1a:b4:14:88:6a:c4:10:55:
                    f4:25:99:09:df:08:fd:01:9c:81:6c:a9:ad:07:34:
                    ba:79:8e:f0:31:80:29:61:90:c9:b1:2b:fb:1b:27:
                    a8:97:98:36:0e:d1:64:06:44:59:fe:d8:74:0e:a1:
                    c8:77:94:a4:95:25:0e:4d:da:3a:9e:4d:3d:4e:36:
                    25:2b:75:8a:45:f2:ba:a5:af:d8:04:68:41:9b:02:
                    e3:2d:63:87:52:bb:b6:68:ad:a6:72:48:da:58:02:
                    a5:04:30:45:49:75:87:84:6d:b8:fc:7f:9d:90:11:
                    31:17:42:d1:8a:14:04:4e:ce:87:e1:5d:06:84:e8:
                    8a:98:4e:08:c3:62:d7:70:0d:16:d0:a5:68:d7:46:
                    91:4b:e0:18:61:9c:54:01:0c:3b:d2:e7:66:43:a7:
                    d5:ef:d3:9d:fd:84:4d:15:67:c6:59:d3:0f:77:57:
                    a9:b5:20:8b:9b:f2:55:d2:57:cd:eb:bf:b9:ee:a8:
                    09:bc:c8:f2:a5:1a:b8:a2:dd:fa:46:81:5c:8b:d1:
                    fc:d7:0f:eb:ff:8f:dd:51:55:76:17:8a:72:94:79:
                    6c:a0:a5:77:25:92:9d:df:4b:07:bd:aa:47:86:24:
                    2e:02:86:2e:47:e0:1e:84:a7:73:a7:f3:de:fb:30:
                    18:f9:1b:7a:b3:ec:9e:63:8b:a5:7c:15:49:e3:bd:
                    fa:fb:28:48:8e:64:94:35:09:9d:b7:9b:88:18:3f:
                    5f:7c:e2:95:42:68:81:e4:88:c1:84:53:e8:87:43:
                    97:f3:59:2f:3f:08:9c:73:ca:2e:98:91:77:9b:40:
                    ca:1b:6c:bd:2b:9c:02:b8:11:dd:5d:a4:8a:03:a8:
                    89:a7:d2:2f:45:59:67:ce:f5:8e:b2:4f:45:9d:59:
                    22:bc:06:b5:e9:0e:3d:bf:65:5f:79:66:17:56:ac:
                    c8:1b:ba:76:c5:9b:3b:e8:f0:75:9e:d6:8c:8e:70:
                    37:b9:14:3b:ae:db:d4:1f:85:4a:a8:0a:2a:a5:48:
                    82:d3:c6:d5:9a:a9:12:ec:a6:2b:da:ef:7c:7d:97:
                    06:e9:8a:3d:ca:53:b6:07:2e:c2:35:e2:b7:5d:8a:
                    b4:b9:ed:cf:3f:5a:a3:45:87:a2:eb:b5:11:17:4b:
                    98:d8:0d:bf:22:18:a0:9e:ce:71:35:49:74:89:09:
                    c8:bc:45:ca:e1:a0:29:39:e9:b6:3c:cd:35:31:9f:
                    f4:04:84:11:68:b1:30:a3:e4:ab:fc:a5:da:8c:2f:
                    d6:36:e1:36:a9:bc:cf:44:d0:fa:de:fc:22:08:cf:
                    e0:8a:43
                Exponent: 65537 (0x10001)
        X509v3 extensions:
            Authority Information Access: 
                CA Issuers - URI:http://root-ca.nscloud.local/root-ca.crt
                OCSP - URI:http://ocsp.root-ca.nscloud.local:9080

            X509v3 Authority Key Identifier: 
                keyid:85:51:CE:B1:30:19:0F:8A:EF:A4:EB:CF:E3:77:83:DC:36:5D:93:CF

            X509v3 Basic Constraints: critical
                CA:TRUE, pathlen:0
            X509v3 CRL Distribution Points: 

                Full Name:
                  URI:http://root-ca.nscloud.local/root-ca.crl

            X509v3 Extended Key Usage: 
                TLS Web Client Authentication, TLS Web Server Authentication
            X509v3 Key Usage: critical
                Certificate Sign, CRL Sign
            X509v3 Name Constraints: 
                Permitted:
                  DNS:example.com
                  DNS:example.org
                Excluded:
                  IP:0.0.0.0/0.0.0.0
                  IP:0:0:0:0:0:0:0:0/0:0:0:0:0:0:0:0

            X509v3 Subject Key Identifier: 
                5C:2A:AA:69:B7:02:2F:F2:0C:1F:CB:8C:B4:DA:F2:EF:83:83:19:AD
    Signature Algorithm: sha256WithRSAEncryption
         06:74:3b:04:e6:0f:94:b6:a4:68:bd:72:9e:85:84:f3:71:34:
         01:49:10:91:d4:a2:ee:48:71:a5:ba:6b:b8:17:8b:f1:0c:35:
         57:25:e9:b9:1a:2a:16:7b:5e:22:eb:d9:c1:79:26:97:15:23:
         21:37:e9:13:0b:ef:45:cf:09:c1:79:31:34:e5:5f:c7:a6:10:
         72:65:09:88:46:b8:de:94:d5:0f:60:04:07:55:72:29:58:51:
         a9:f8:bb:b9:38:89:fd:f4:0f:68:8f:7e:3d:85:0b:cf:7f:73:
         59:72:9e:cd:38:af:f5:f4:f7:c7:6e:a2:35:52:49:40:7c:96:
         80:5a:21:a0:bd:12:fa:61:90:1e:16:73:1d:ab:08:06:01:13:
         e5:dd:40:2a:c5:e9:f7:f0:21:8f:aa:0d:3a:9d:ee:2c:c5:22:
         99:de:d5:e3:3c:fe:cb:ae:a0:5a:52:68:5c:2d:3b:bd:dd:be:
         55:af:24:07:b7:e5:de:35:a7:6b:52:a4:d8:8e:ca:50:3f:03:
         b2:4c:f6:a0:4a:5e:12:f5:8c:c9:1f:bb:37:18:b9:19:65:d0:
         dd:7d:8d:6a:b5:91:68:3d:61:d7:bc:74:89:97:cd:d1:87:1a:
         44:01:3b:1d:a6:46:f5:74:66:30:99:5d:d1:78:d4:05:5d:a6:
         65:8e:e0:b3:22:d2:05:da:18:72:e9:5d:6b:b0:cc:12:7b:61:
         a5:ca:bc:ea:f0:82:61:1b:49:40:31:88:c8:76:c8:82:ec:3d:
         74:65:f5:da:c5:4f:8b:ba:03:d8:9c:05:73:36:5c:77:8a:c5:
         3e:91:19:9e:19:26:3c:43:37:a2:d7:ac:51:73:d5:44:4b:a5:
         d0:e3:eb:e3:15:48:4c:51:e9:21:87:27:ef:d5:d7:b8:71:b5:
         7d:19:dd:79:78:8e:e3:99:31:b5:84:d0:73:43:22:78:5c:03:
         2e:69:1a:dd:6b:ad:cc:95:3e:a9:0f:43:45:03:ac:72:fb:d1:
         78:64:11:44:cf:92:c3:df:aa:a0:07:01:5b:28:0f:57:84:a5:
         05:54:e3:cd:77:cf:bf:21:81:c3:4f:2c:bf:15:c4:17:45:59:
         5f:8b:93:8a:f0:72:44:af:f5:38:3d:ee:f5:44:c4:e7:bc:75:
         f1:6e:19:94:f6:fd:5d:08:54:82:66:8f:7b:cc:38:fe:df:e8:
         61:19:04:39:b7:0e:9d:15:8d:71:8e:b4:81:c1:75:80:44:7e:
         3d:fa:45:35:ed:29:8f:eb:7a:8e:57:74:77:ec:95:ef:76:c6:
         a9:68:3c:4b:f3:fd:85:15:f6:49:14:0d:a5:08:fb:e2:d9:a9:
         cd:38:1d:59:3b:0f:0f:70
-----BEGIN CERTIFICATE-----
MIIGizCCBHOgAwIBAgIQAJ3XgcXjoAfj9j9HXWJUljANBgkqhkiG9w0BAQsFADAz
MQswCQYDVQQGEwJDTjESMBAGA1UECgwJTmF0aW9uc2t5MRAwDgYDVQQDDAdSb290
IENBMB4XDTE3MDMzMTA0MTUwMFoXDTI3MDMyOTA0MTUwMFowMzELMAkGA1UEBhMC
Q04xEjAQBgNVBAoMCU5hdGlvbnNreTEQMA4GA1UEAwwHUm9vdCBDQTCCAiIwDQYJ
KoZIhvcNAQEBBQADggIPADCCAgoCggIBAKOrQndkEIMUuWdV5MBlYOS1rFb1Ihq0
FIhqxBBV9CWZCd8I/QGcgWyprQc0unmO8DGAKWGQybEr+xsnqJeYNg7RZAZEWf7Y
dA6hyHeUpJUlDk3aOp5NPU42JSt1ikXyuqWv2ARoQZsC4y1jh1K7tmitpnJI2lgC
pQQwRUl1h4RtuPx/nZARMRdC0YoUBE7Oh+FdBoToiphOCMNi13ANFtClaNdGkUvg
GGGcVAEMO9LnZkOn1e/Tnf2ETRVnxlnTD3dXqbUgi5vyVdJXzeu/ue6oCbzI8qUa
uKLd+kaBXIvR/NcP6/+P3VFVdheKcpR5bKCldyWSnd9LB72qR4YkLgKGLkfgHoSn
c6fz3vswGPkberPsnmOLpXwVSeO9+vsoSI5klDUJnbebiBg/X3zilUJogeSIwYRT
6IdDl/NZLz8InHPKLpiRd5tAyhtsvSucArgR3V2kigOoiafSL0VZZ871jrJPRZ1Z
IrwGtekOPb9lX3lmF1asyBu6dsWbO+jwdZ7WjI5wN7kUO67b1B+FSqgKKqVIgtPG
1ZqpEuymK9rvfH2XBumKPcpTtgcuwjXit12KtLntzz9ao0WHouu1ERdLmNgNvyIY
oJ7OcTVJdIkJyLxFyuGgKTnptjzNNTGf9ASEEWixMKPkq/yl2owv1jbhNqm8z0TQ
+t78IgjP4IpDAgMBAAGjggGZMIIBlTB4BggrBgEFBQcBAQRsMGowNAYIKwYBBQUH
MAKGKGh0dHA6Ly9yb290LWNhLm5zY2xvdWQubG9jYWwvcm9vdC1jYS5jcnQwMgYI
KwYBBQUHMAGGJmh0dHA6Ly9vY3NwLnJvb3QtY2EubnNjbG91ZC5sb2NhbDo5MDgw
MB8GA1UdIwQYMBaAFIVRzrEwGQ+K76Trz+N3g9w2XZPPMBIGA1UdEwEB/wQIMAYB
Af8CAQAwOQYDVR0fBDIwMDAuoCygKoYoaHR0cDovL3Jvb3QtY2EubnNjbG91ZC5s
b2NhbC9yb290LWNhLmNybDAdBgNVHSUEFjAUBggrBgEFBQcDAgYIKwYBBQUHAwEw
DgYDVR0PAQH/BAQDAgEGMFsGA1UdHgRUMFKgHjANggtleGFtcGxlLmNvbTANggtl
eGFtcGxlLm9yZ6EwMAqHCAAAAAAAAAAAMCKHIAAAAAAAAAAAAAAAAAAAAAAAAAAA
AAAAAAAAAAAAAAAAMB0GA1UdDgQWBBRcKqpptwIv8gwfy4y02vLvg4MZrTANBgkq
hkiG9w0BAQsFAAOCAgEABnQ7BOYPlLakaL1ynoWE83E0AUkQkdSi7khxpbpruBeL
8Qw1VyXpuRoqFnteIuvZwXkmlxUjITfpEwvvRc8JwXkxNOVfx6YQcmUJiEa43pTV
D2AEB1VyKVhRqfi7uTiJ/fQPaI9+PYULz39zWXKezTiv9fT3x26iNVJJQHyWgFoh
oL0S+mGQHhZzHasIBgET5d1AKsXp9/Ahj6oNOp3uLMUimd7V4zz+y66gWlJoXC07
vd2+Va8kB7fl3jWna1Kk2I7KUD8Dskz2oEpeEvWMyR+7Nxi5GWXQ3X2NarWRaD1h
17x0iZfN0YcaRAE7HaZG9XRmMJld0XjUBV2mZY7gsyLSBdoYculda7DMEnthpcq8
6vCCYRtJQDGIyHbIguw9dGX12sVPi7oD2JwFczZcd4rFPpEZnhkmPEM3otesUXPV
REul0OPr4xVITFHpIYcn79XXuHG1fRndeXiO45kxtYTQc0MieFwDLmka3WutzJU+
qQ9DRQOscvvReGQRRM+Sw9+qoAcBWygPV4SlBVTjzXfPvyGBw08svxXEF0VZX4uT
ivByRK/1OD3u9UTE57x18W4ZlPb9XQhUgmaPe8w4/t/oYRkEObcOnRWNcY60gcF1
gER+PfpFNe0pj+t6jld0d+yV73bGqWg8S/P9hRX2SRQNpQj74tmpzTgdWTsPD3A=
-----END CERTIFICATE-----
