Certificate:
    Data:
        Version: 3 (0x2)
        Serial Number:
            3a:43:b8:1b:e0:ea:6b:31:93:35:08:9e:73:57:ff:16
    Signature Algorithm: sha256WithRSAEncryption
        Issuer: C=CN, O=Nationsky, CN=Root CA
        Validity
            Not Before: Mar 31 08:02:49 2017 GMT
            Not After : Mar 29 08:02:49 2027 GMT
        Subject: C=CN, O=Nationsky, CN=Sub CA
        Subject Public Key Info:
            Public Key Algorithm: rsaEncryption
                Public-Key: (4096 bit)
                Modulus:
                    00:94:f6:5a:d1:49:64:8b:53:80:ce:60:e2:f9:80:
                    76:03:43:80:5d:e1:de:31:97:17:33:b9:82:94:71:
                    d7:3c:d5:f7:ea:30:62:e0:5e:18:8d:88:2e:ad:0e:
                    65:20:c0:f4:7d:cb:b2:c0:95:c8:29:a0:10:2f:9f:
                    c5:10:49:29:ed:ff:53:67:b6:30:8f:32:02:a2:07:
                    40:40:14:a8:85:1e:ac:8f:22:a6:e5:cd:31:39:de:
                    5b:cd:f4:da:14:5b:39:ee:b0:d2:6c:99:62:af:d7:
                    c8:09:a6:3d:31:d5:81:b4:81:47:f1:35:38:e3:59:
                    b7:7f:8b:43:ec:6c:83:ea:e0:7a:ea:86:f3:7f:41:
                    f0:36:ea:3e:1a:5a:00:a9:d5:9c:2b:cf:63:f4:db:
                    d9:2e:08:72:29:1a:7a:04:b1:8c:bd:0f:2a:c7:90:
                    02:d6:de:cf:2b:b8:c5:3b:3f:57:8a:ec:a8:f2:e0:
                    87:8f:21:53:e7:d4:11:d8:d8:38:5c:3f:cc:e0:1c:
                    4d:23:e6:80:36:8d:af:ab:c3:bb:c3:b7:f9:77:e5:
                    1d:2e:91:c6:3e:1f:d6:90:d6:82:27:fb:1b:de:24:
                    0a:41:0a:18:35:9c:53:0c:76:f7:2a:00:56:33:ef:
                    0a:ee:98:8a:46:f8:a1:eb:b0:c3:a2:9b:4b:89:87:
                    ef:cc:9c:c4:6f:73:d0:e7:cc:c4:bd:c3:01:04:36:
                    12:a7:29:98:20:3d:ba:dd:5c:4b:16:13:ee:05:d1:
                    7b:38:0c:1f:54:2d:73:96:aa:38:86:62:14:f6:2b:
                    3e:fe:2c:f7:9a:b8:79:40:e4:b8:7f:9e:22:2c:95:
                    ca:a7:5f:74:de:87:30:86:c0:39:81:66:35:9d:ea:
                    be:9a:48:f7:8a:64:ea:3d:fd:ce:b0:ae:2d:4b:68:
                    fe:6e:cd:be:b8:ae:d6:1f:d8:01:9d:b8:20:a9:26:
                    89:04:45:5c:a5:6e:6b:de:97:df:db:1f:b2:b0:59:
                    fd:77:2e:15:ff:c1:f0:09:dc:1d:b7:d2:dc:1b:9b:
                    41:68:1f:f9:8b:3a:ca:7d:86:b1:0d:67:18:1f:6a:
                    4a:16:a0:10:7d:eb:32:8d:56:95:1e:16:0a:ff:b4:
                    ea:62:25:cf:f5:db:95:44:79:cc:e3:1f:66:8d:1a:
                    61:6b:0d:09:bf:4a:9c:c1:af:37:49:3d:73:dd:97:
                    1d:3d:c8:b5:cf:ad:d9:9d:b4:78:0e:9e:6b:cb:94:
                    01:a2:b1:36:84:2a:90:cb:83:84:06:20:1a:26:4b:
                    98:4b:f2:e5:d4:a8:9c:9f:46:0b:14:c1:9b:af:73:
                    6d:d8:52:dc:37:02:ae:aa:d3:76:32:d1:fb:70:a1:
                    98:dd:99
                Exponent: 65537 (0x10001)
        X509v3 extensions:
            Authority Information Access: 
                CA Issuers - URI:http://root-ca.nscloud.local/root-ca.crt
                OCSP - URI:http://ocsp.root-ca.nscloud.local:9080

            X509v3 Authority Key Identifier: 
                keyid:94:F1:CF:C4:62:D1:22:FA:D8:55:9A:1D:2B:95:47:D0:99:1F:40:3F

            X509v3 Basic Constraints: critical
                CA:TRUE, pathlen:0
            X509v3 CRL Distribution Points: 

                Full Name:
                  URI:http://root-ca.nscloud.local/root-ca.crl

            X509v3 Extended Key Usage: 
                TLS Web Client Authentication, TLS Web Server Authentication
            X509v3 Key Usage: critical
                Certificate Sign, CRL Sign
            X509v3 Name Constraints: 
                Permitted:
                  DNS:example.com
                  DNS:example.org
                Excluded:
                  IP:0.0.0.0/0.0.0.0
                  IP:0:0:0:0:0:0:0:0/0:0:0:0:0:0:0:0

            X509v3 Subject Key Identifier: 
                15:57:45:54:EA:EB:C0:88:64:C6:3E:73:98:9F:5D:E5:C3:51:EB:52
    Signature Algorithm: sha256WithRSAEncryption
         d0:0a:bc:ec:37:b2:51:ca:d5:e3:a6:b5:63:19:a2:a2:08:82:
         78:d8:fd:05:3e:0a:22:32:ac:b7:3a:6e:dd:cf:e2:32:14:2e:
         26:b5:8d:d8:1f:ee:ec:31:23:35:67:e3:bf:77:9b:ec:71:42:
         a9:9d:bd:40:50:92:5c:cd:f1:04:b1:03:27:8d:9f:17:aa:d0:
         b9:56:be:fb:1b:f2:c2:f9:8b:05:7a:41:34:cb:bb:a2:d5:55:
         a8:df:17:98:3f:ed:b0:39:c8:a5:75:4b:6b:71:4d:4e:91:20:
         a6:fe:e6:76:6a:f6:b8:d0:00:bc:3c:42:aa:3c:7e:bc:03:93:
         b9:7e:9f:15:28:06:8b:bd:f6:29:e9:0a:5d:ac:26:5b:16:e5:
         39:3e:1b:03:94:aa:2f:db:6a:ba:89:db:7a:ac:06:6f:2b:30:
         18:80:39:6f:cc:cb:a1:86:b4:57:fe:b8:70:84:6a:ca:3b:0c:
         ea:4b:e6:cc:78:ef:d3:34:2c:8d:17:12:b8:bd:21:e6:b7:f7:
         17:1e:f7:c7:7f:3a:ee:15:87:8a:46:e9:58:e8:db:99:a8:f0:
         fd:a5:00:fb:fe:7a:a8:70:2b:6d:8c:20:1b:21:7d:60:bd:a8:
         b9:ed:a6:1c:53:bc:42:1c:80:fa:cb:08:8f:c7:62:2d:dd:28:
         fe:43:a0:b0:fd:ed:46:36:e3:bc:ce:35:a0:a2:ff:ad:93:27:
         7e:85:42:3b:43:26:da:e4:3c:4d:d0:89:43:93:80:6e:bb:dc:
         88:53:28:16:a8:18:6d:44:e9:4a:86:c1:b6:1a:3c:cf:a5:7c:
         5e:27:f3:a0:87:a9:6c:7b:72:3e:e4:31:59:68:22:d4:c6:de:
         60:6f:c5:00:00:dd:ab:af:ee:62:e9:d9:f3:a7:e1:d1:02:70:
         15:9f:95:f0:d1:32:ef:c0:5f:1f:cb:f0:18:fa:2a:6a:3d:3e:
         01:0a:95:67:19:17:77:33:3a:46:b1:2c:d8:d8:80:c0:c5:6e:
         91:ad:66:6c:94:a3:7c:28:41:5b:57:20:16:e4:59:86:45:dc:
         4e:d0:de:a2:31:b2:03:9d:7b:65:64:d9:2f:15:d1:71:cf:4d:
         23:7d:bb:01:fd:3f:78:6a:21:7d:b0:4f:7c:ff:a4:c0:58:89:
         d5:8d:18:aa:56:15:80:af:8b:6c:58:bc:26:f2:0a:60:9e:40:
         b3:b5:52:52:1f:36:52:be:07:de:5b:10:e1:2b:75:fd:49:ad:
         02:94:91:70:0b:7a:af:59:b2:f1:7b:60:9d:37:e4:95:18:e8:
         9b:82:82:60:1d:7e:20:4e:e2:59:54:c7:62:b0:ca:ac:17:a5:
         3d:5e:a7:f7:67:5a:96:9e
-----BEGIN CERTIFICATE-----
MIIGijCCBHKgAwIBAgIQOkO4G+DqazGTNQiec1f/FjANBgkqhkiG9w0BAQsFADAz
MQswCQYDVQQGEwJDTjESMBAGA1UECgwJTmF0aW9uc2t5MRAwDgYDVQQDDAdSb290
IENBMB4XDTE3MDMzMTA4MDI0OVoXDTI3MDMyOTA4MDI0OVowMjELMAkGA1UEBhMC
Q04xEjAQBgNVBAoMCU5hdGlvbnNreTEPMA0GA1UEAwwGU3ViIENBMIICIjANBgkq
hkiG9w0BAQEFAAOCAg8AMIICCgKCAgEAlPZa0Ulki1OAzmDi+YB2A0OAXeHeMZcX
M7mClHHXPNX36jBi4F4YjYgurQ5lIMD0fcuywJXIKaAQL5/FEEkp7f9TZ7YwjzIC
ogdAQBSohR6sjyKm5c0xOd5bzfTaFFs57rDSbJlir9fICaY9MdWBtIFH8TU441m3
f4tD7GyD6uB66obzf0HwNuo+GloAqdWcK89j9NvZLghyKRp6BLGMvQ8qx5AC1t7P
K7jFOz9Xiuyo8uCHjyFT59QR2Ng4XD/M4BxNI+aANo2vq8O7w7f5d+UdLpHGPh/W
kNaCJ/sb3iQKQQoYNZxTDHb3KgBWM+8K7piKRvih67DDoptLiYfvzJzEb3PQ58zE
vcMBBDYSpymYID263VxLFhPuBdF7OAwfVC1zlqo4hmIU9is+/iz3mrh5QOS4f54i
LJXKp1903ocwhsA5gWY1neq+mkj3imTqPf3OsK4tS2j+bs2+uK7WH9gBnbggqSaJ
BEVcpW5r3pff2x+ysFn9dy4V/8HwCdwdt9LcG5tBaB/5izrKfYaxDWcYH2pKFqAQ
fesyjVaVHhYK/7TqYiXP9duVRHnM4x9mjRphaw0Jv0qcwa83ST1z3ZcdPci1z63Z
nbR4Dp5ry5QBorE2hCqQy4OEBiAaJkuYS/Ll1Kicn0YLFMGbr3Nt2FLcNwKuqtN2
MtH7cKGY3ZkCAwEAAaOCAZkwggGVMHgGCCsGAQUFBwEBBGwwajA0BggrBgEFBQcw
AoYoaHR0cDovL3Jvb3QtY2EubnNjbG91ZC5sb2NhbC9yb290LWNhLmNydDAyBggr
BgEFBQcwAYYmaHR0cDovL29jc3Aucm9vdC1jYS5uc2Nsb3VkLmxvY2FsOjkwODAw
HwYDVR0jBBgwFoAUlPHPxGLRIvrYVZodK5VH0JkfQD8wEgYDVR0TAQH/BAgwBgEB
/wIBADA5BgNVHR8EMjAwMC6gLKAqhihodHRwOi8vcm9vdC1jYS5uc2Nsb3VkLmxv
Y2FsL3Jvb3QtY2EuY3JsMB0GA1UdJQQWMBQGCCsGAQUFBwMCBggrBgEFBQcDATAO
BgNVHQ8BAf8EBAMCAQYwWwYDVR0eBFQwUqAeMA2CC2V4YW1wbGUuY29tMA2CC2V4
YW1wbGUub3JnoTAwCocIAAAAAAAAAAAwIocgAAAAAAAAAAAAAAAAAAAAAAAAAAAA
AAAAAAAAAAAAAAAwHQYDVR0OBBYEFBVXRVTq68CIZMY+c5ifXeXDUetSMA0GCSqG
SIb3DQEBCwUAA4ICAQDQCrzsN7JRytXjprVjGaKiCIJ42P0FPgoiMqy3Om7dz+Iy
FC4mtY3YH+7sMSM1Z+O/d5vscUKpnb1AUJJczfEEsQMnjZ8XqtC5Vr77G/LC+YsF
ekE0y7ui1VWo3xeYP+2wOcildUtrcU1OkSCm/uZ2ava40AC8PEKqPH68A5O5fp8V
KAaLvfYp6QpdrCZbFuU5PhsDlKov22q6idt6rAZvKzAYgDlvzMuhhrRX/rhwhGrK
OwzqS+bMeO/TNCyNFxK4vSHmt/cXHvfHfzruFYeKRulY6NuZqPD9pQD7/nqocCtt
jCAbIX1gvai57aYcU7xCHID6ywiPx2It3Sj+Q6Cw/e1GNuO8zjWgov+tkyd+hUI7
Qyba5DxN0IlDk4Buu9yIUygWqBhtROlKhsG2GjzPpXxeJ/Ogh6lse3I+5DFZaCLU
xt5gb8UAAN2rr+5i6dnzp+HRAnAVn5Xw0TLvwF8fy/AY+ipqPT4BCpVnGRd3MzpG
sSzY2IDAxW6RrWZslKN8KEFbVyAW5FmGRdxO0N6iMbIDnXtlZNkvFdFxz00jfbsB
/T94aiF9sE98/6TAWInVjRiqVhWAr4tsWLwm8gpgnkCztVJSHzZSvgfeWxDhK3X9
Sa0ClJFwC3qvWbLxe2CdN+SVGOibgoJgHX4gTuJZVMdisMqsF6U9Xqf3Z1qWng==
-----END CERTIFICATE-----
