Certificate:
    Data:
        Version: 3 (0x2)
        Serial Number:
            3a:43:b8:1b:e0:ea:6b:31:93:35:08:9e:73:57:ff:14
    Signature Algorithm: sha256WithRSAEncryption
        Issuer: C=CN, O=Nationsky, CN=Root CA
        Validity
            Not Before: Mar 31 06:48:51 2017 GMT
            Not After : Mar 29 06:48:51 2027 GMT
        Subject: C=CN, O=Nationsky, CN=Root CA
        Subject Public Key Info:
            Public Key Algorithm: rsaEncryption
                Public-Key: (4096 bit)
                Modulus:
                    00:e4:30:20:61:ee:73:8d:06:d5:13:2b:83:3c:b3:
                    ba:ac:b5:70:ef:0c:e1:08:2d:8b:2f:77:b5:1f:21:
                    6c:50:02:ad:fd:1a:ec:88:fa:4c:23:72:bd:97:88:
                    72:b5:93:94:d9:f4:e7:5c:42:73:4a:ac:52:4b:75:
                    fa:85:8f:71:f4:0e:4d:79:ae:9d:0c:a1:f8:06:de:
                    3a:8a:90:de:ae:27:1e:63:ef:4c:c8:71:cc:bf:27:
                    95:24:37:96:b5:70:76:ac:75:32:03:24:0a:da:63:
                    a8:7b:fc:9a:60:2c:69:f0:b8:fc:db:9b:ff:06:18:
                    33:70:b9:be:32:5f:f8:53:cd:9b:19:ab:8c:9b:90:
                    e7:0d:a8:ee:ad:2a:bf:4a:f3:6b:1c:b7:4f:f0:86:
                    9e:a5:65:05:20:36:75:11:a1:df:1f:28:7f:f1:c8:
                    20:c8:ca:53:0c:9b:01:c8:18:61:cb:cc:55:05:1d:
                    16:18:85:7d:4f:90:d6:9b:a5:5d:7f:ee:d7:a3:2e:
                    03:cf:e2:f1:05:15:7a:d3:30:67:4f:f9:33:3e:7c:
                    a7:fd:7b:dc:f3:58:85:54:fe:79:97:cc:2a:32:39:
                    4a:db:66:30:c5:f9:20:1c:ee:b6:03:7f:61:4d:9e:
                    c9:84:21:3f:e7:05:99:ba:ef:1b:f5:79:cc:af:4b:
                    fe:cf:6b:d2:b3:2e:ca:c1:93:c1:71:5a:91:af:a7:
                    44:a0:40:a5:05:9a:8b:77:5c:f2:d6:61:87:33:03:
                    47:3a:f6:d4:19:b2:3d:5e:73:54:41:05:62:fd:c7:
                    6f:7f:f4:3a:ea:b2:eb:9d:cf:ff:13:19:65:18:c9:
                    09:93:5a:6d:00:3f:89:76:bc:c4:27:0a:d3:6a:85:
                    74:0c:04:ec:80:70:4f:0b:51:fe:36:bd:d2:50:e0:
                    18:cd:34:fa:7e:67:b1:b8:f8:6a:c2:86:94:f0:f3:
                    2f:96:88:c4:c6:a5:7a:86:ad:cc:8a:13:bf:82:6c:
                    a9:7a:1f:43:81:0b:87:ff:9f:96:49:86:34:d9:98:
                    11:24:10:76:75:e0:aa:01:3f:c2:5b:06:98:c0:ed:
                    83:7d:dd:f5:6a:42:f9:69:67:cf:c0:df:be:6c:f8:
                    a3:53:76:ad:dd:ac:96:34:b5:55:cd:e0:58:d0:34:
                    a2:d4:81:a6:79:5f:88:91:91:5e:cc:60:50:15:c9:
                    c6:2c:df:d4:cc:f5:d7:2d:8e:be:ff:f1:58:15:b4:
                    07:9e:cc:67:3e:de:49:c3:32:c6:05:53:9d:06:27:
                    cf:bf:60:a5:aa:62:59:9d:24:80:d3:87:6e:06:5d:
                    58:a2:92:51:ba:9e:04:26:f0:06:aa:5c:30:a0:1a:
                    da:98:09
                Exponent: 65537 (0x10001)
        X509v3 extensions:
            X509v3 Basic Constraints: critical
                CA:TRUE
            X509v3 Key Usage: critical
                Certificate Sign, CRL Sign
            X509v3 Subject Key Identifier: 
                94:F1:CF:C4:62:D1:22:FA:D8:55:9A:1D:2B:95:47:D0:99:1F:40:3F
    Signature Algorithm: sha256WithRSAEncryption
         69:8f:cb:26:82:93:b2:f4:20:94:19:16:9c:06:71:cf:9f:0f:
         40:f6:48:e6:02:25:7d:ad:db:3b:f7:51:b3:df:e1:28:93:8d:
         31:8f:36:68:36:01:2e:e7:cd:27:9a:5d:84:5b:e2:0f:e4:69:
         35:ec:73:94:e6:73:51:84:37:e4:3b:2f:0a:cc:68:eb:30:99:
         f5:56:5a:da:2c:ee:9d:2b:a8:d5:31:ac:9a:6f:70:b6:f5:b9:
         d4:c5:29:16:57:9c:e9:26:6d:92:ae:82:76:1a:c1:d5:ce:46:
         85:4c:8f:4f:16:d7:54:e4:11:1e:46:9f:9e:63:07:ed:85:43:
         ed:a3:fd:55:a4:80:99:93:fb:fd:f4:25:29:84:5f:88:c2:62:
         4a:0c:2e:32:ce:bd:7a:79:cc:a3:7c:05:e5:01:0e:be:02:37:
         3c:ea:ec:1d:75:15:06:1e:de:30:df:0a:55:73:d8:c9:cb:04:
         50:a9:79:02:81:48:43:48:b7:0c:de:ce:0b:5a:10:00:81:d1:
         39:bf:02:64:1f:2e:03:e5:fe:bd:69:71:75:04:9f:81:1c:f1:
         8d:4e:f4:77:a2:0c:41:20:a9:e9:fe:c5:60:f8:6a:1b:92:1c:
         67:7b:a8:b6:85:57:9c:79:26:a9:13:a7:23:ba:f0:ab:9a:e5:
         19:9c:e8:d7:b7:45:0a:3d:f1:9d:a3:22:57:25:26:1a:b2:de:
         fb:15:0b:5b:30:e4:09:38:dc:f4:8c:76:18:51:fb:a5:e6:2a:
         e6:65:b8:18:31:38:d9:43:f2:e1:6a:93:a0:2a:a8:4b:0a:cb:
         81:8d:27:22:b2:43:11:3f:92:1e:c6:f7:6a:8d:65:01:c0:98:
         67:b2:20:0f:17:c5:80:1f:03:e6:3e:0f:05:46:9f:b9:0b:ad:
         9d:02:60:bf:ec:c4:14:69:9d:95:19:11:70:4e:bd:4f:9f:95:
         90:2f:44:60:d0:e2:c5:34:0a:5c:5c:1d:9c:c1:c9:80:d2:23:
         22:8d:91:5c:26:54:87:65:8d:9c:2c:0a:9d:8d:2a:94:38:85:
         ee:47:b3:f0:a3:a9:93:fd:20:e1:55:7b:17:48:22:28:64:8d:
         0e:f2:73:33:40:4f:05:de:3d:95:8e:b8:27:1e:ee:26:af:04:
         07:09:3c:79:96:8a:45:f6:e7:88:62:91:5e:e6:a2:02:33:8e:
         3f:ee:ff:12:32:2f:a6:31:e0:0b:0a:61:20:72:de:dc:f1:4e:
         1a:a2:09:54:5f:44:8a:5e:5f:ef:17:77:e1:39:93:b0:40:73:
         34:61:82:fe:ef:55:dd:44:0d:4b:c4:c6:44:c6:e1:6a:f2:b1:
         b1:bd:e2:e1:ae:66:e5:d2
-----BEGIN CERTIFICATE-----
MIIFMjCCAxqgAwIBAgIQOkO4G+DqazGTNQiec1f/FDANBgkqhkiG9w0BAQsFADAz
MQswCQYDVQQGEwJDTjESMBAGA1UECgwJTmF0aW9uc2t5MRAwDgYDVQQDDAdSb290
IENBMB4XDTE3MDMzMTA2NDg1MVoXDTI3MDMyOTA2NDg1MVowMzELMAkGA1UEBhMC
Q04xEjAQBgNVBAoMCU5hdGlvbnNreTEQMA4GA1UEAwwHUm9vdCBDQTCCAiIwDQYJ
KoZIhvcNAQEBBQADggIPADCCAgoCggIBAOQwIGHuc40G1RMrgzyzuqy1cO8M4Qgt
iy93tR8hbFACrf0a7Ij6TCNyvZeIcrWTlNn051xCc0qsUkt1+oWPcfQOTXmunQyh
+AbeOoqQ3q4nHmPvTMhxzL8nlSQ3lrVwdqx1MgMkCtpjqHv8mmAsafC4/Nub/wYY
M3C5vjJf+FPNmxmrjJuQ5w2o7q0qv0rzaxy3T/CGnqVlBSA2dRGh3x8of/HIIMjK
UwybAcgYYcvMVQUdFhiFfU+Q1pulXX/u16MuA8/i8QUVetMwZ0/5Mz58p/173PNY
hVT+eZfMKjI5SttmMMX5IBzutgN/YU2eyYQhP+cFmbrvG/V5zK9L/s9r0rMuysGT
wXFaka+nRKBApQWai3dc8tZhhzMDRzr21BmyPV5zVEEFYv3Hb3/0Ouqy653P/xMZ
ZRjJCZNabQA/iXa8xCcK02qFdAwE7IBwTwtR/ja90lDgGM00+n5nsbj4asKGlPDz
L5aIxMaleoatzIoTv4JsqXofQ4ELh/+flkmGNNmYESQQdnXgqgE/wlsGmMDtg33d
9WpC+Wlnz8Dfvmz4o1N2rd2sljS1Vc3gWNA0otSBpnlfiJGRXsxgUBXJxizf1Mz1
1y2Ovv/xWBW0B57MZz7eScMyxgVTnQYnz79gpapiWZ0kgNOHbgZdWKKSUbqeBCbw
BqpcMKAa2pgJAgMBAAGjQjBAMA8GA1UdEwEB/wQFMAMBAf8wDgYDVR0PAQH/BAQD
AgEGMB0GA1UdDgQWBBSU8c/EYtEi+thVmh0rlUfQmR9APzANBgkqhkiG9w0BAQsF
AAOCAgEAaY/LJoKTsvQglBkWnAZxz58PQPZI5gIlfa3bO/dRs9/hKJONMY82aDYB
LufNJ5pdhFviD+RpNexzlOZzUYQ35DsvCsxo6zCZ9VZa2izunSuo1TGsmm9wtvW5
1MUpFlec6SZtkq6CdhrB1c5GhUyPTxbXVOQRHkafnmMH7YVD7aP9VaSAmZP7/fQl
KYRfiMJiSgwuMs69ennMo3wF5QEOvgI3POrsHXUVBh7eMN8KVXPYycsEUKl5AoFI
Q0i3DN7OC1oQAIHROb8CZB8uA+X+vWlxdQSfgRzxjU70d6IMQSCp6f7FYPhqG5Ic
Z3uotoVXnHkmqROnI7rwq5rlGZzo17dFCj3xnaMiVyUmGrLe+xULWzDkCTjc9Ix2
GFH7peYq5mW4GDE42UPy4WqToCqoSwrLgY0nIrJDET+SHsb3ao1lAcCYZ7IgDxfF
gB8D5j4PBUafuQutnQJgv+zEFGmdlRkRcE69T5+VkC9EYNDixTQKXFwdnMHJgNIj
Io2RXCZUh2WNnCwKnY0qlDiF7kez8KOpk/0g4VV7F0giKGSNDvJzM0BPBd49lY64
Jx7uJq8EBwk8eZaKRfbniGKRXuaiAjOOP+7/EjIvpjHgCwphIHLe3PFOGqIJVF9E
il5f7xd34TmTsEBzNGGC/u9V3UQNS8TGRMbhavKxsb3i4a5m5dI=
-----END CERTIFICATE-----
