Certificate:
    Data:
        Version: 3 (0x2)
        Serial Number:
            9d:d7:81:c5:e3:a0:07:e3:f6:3f:47:5d:62:54:94
    Signature Algorithm: sha256WithRSAEncryption
        Issuer: C=CN, O=Nationsky, CN=Root CA
        Validity
            Not Before: Mar 31 04:08:47 2017 GMT
            Not After : Mar 29 04:08:47 2027 GMT
        Subject: C=CN, O=Nationsky, CN=Root CA
        Subject Public Key Info:
            Public Key Algorithm: rsaEncryption
                Public-Key: (4096 bit)
                Modulus:
                    00:b9:54:06:e2:87:dd:14:c8:81:e5:02:12:7c:fd:
                    f3:49:3a:7b:ee:e8:d2:f6:43:aa:99:bb:d8:90:17:
                    2b:c1:8a:4e:ce:95:31:8d:2e:58:a3:12:99:1e:25:
                    cf:91:cd:12:2e:40:10:fa:74:db:b8:01:e0:ce:ae:
                    bb:67:94:a0:9f:bb:e8:58:2c:d1:88:2d:17:f6:61:
                    8f:c4:7a:60:52:6f:9c:15:8b:ba:ea:df:f4:60:f2:
                    0a:1b:7a:2a:3a:7e:13:0b:1a:38:71:6d:d2:84:ea:
                    e0:c6:ef:b3:1d:17:d7:a3:de:75:54:11:e2:e4:b5:
                    a5:e2:3b:87:75:04:f8:c9:fc:9d:3f:a6:6e:d8:fd:
                    0d:64:56:7a:8c:70:73:cb:c5:e7:d8:e1:1c:91:3b:
                    3a:91:47:57:ba:0a:4b:07:27:79:7b:37:a0:10:7c:
                    8a:4d:4d:81:7c:ba:6a:f4:f4:6c:f9:26:d7:e2:f5:
                    94:be:86:69:7d:08:61:60:cb:1a:77:2f:73:96:82:
                    a3:9d:6c:dd:fc:d2:61:ac:86:37:fc:20:f3:e0:f0:
                    8e:41:3a:8d:2f:b2:ed:f8:96:15:f2:5f:88:f6:b0:
                    79:f0:ca:be:87:a2:56:3f:f8:09:c9:74:f5:55:dd:
                    dc:84:7f:3e:ae:94:4a:46:91:a6:3f:0d:66:d8:1a:
                    31:67:e6:54:cb:00:12:5b:43:5f:57:66:ac:61:35:
                    54:6e:37:39:49:e1:ff:04:06:65:41:38:b9:52:3d:
                    e0:9e:cf:37:7a:a9:7b:7b:81:e2:52:ba:8c:5c:2d:
                    68:c6:b2:58:b6:7d:62:74:d9:0d:9d:63:1e:b6:43:
                    ee:70:3e:f7:3e:4e:41:b3:43:af:0e:e1:1c:4b:bb:
                    ab:f6:24:38:e0:4c:79:8b:69:02:23:66:e1:e7:15:
                    ed:99:51:6a:21:8e:a2:18:f2:0a:e0:9d:47:1e:9e:
                    e4:24:29:35:5d:c8:d6:f1:01:7b:3b:1a:3e:a8:2f:
                    5d:a6:fc:c8:66:a1:84:c5:3d:3f:d0:2f:b2:58:7c:
                    8f:78:79:85:e8:af:bb:fe:d0:9e:52:c3:f8:d2:57:
                    ce:e1:bb:85:82:d9:27:6a:d1:c5:70:35:b6:1b:ac:
                    25:ea:10:9b:23:d6:ed:47:5f:85:16:fb:dc:00:4e:
                    c7:ef:8a:7c:43:de:3e:eb:b8:c8:a7:4c:f2:ef:76:
                    68:9d:94:af:89:b3:a2:7b:94:f7:ca:48:43:46:aa:
                    c7:20:0e:77:22:df:8d:97:9a:1b:88:e0:0a:87:b7:
                    43:69:14:b5:5d:89:e0:6c:d7:d6:da:18:87:88:ea:
                    74:3a:28:d2:a7:88:57:1b:83:20:79:d0:8e:5d:06:
                    f0:25:25
                Exponent: 65537 (0x10001)
        X509v3 extensions:
            X509v3 Basic Constraints: critical
                CA:TRUE
            X509v3 Key Usage: critical
                Certificate Sign, CRL Sign
            X509v3 Subject Key Identifier: 
                85:51:CE:B1:30:19:0F:8A:EF:A4:EB:CF:E3:77:83:DC:36:5D:93:CF
    Signature Algorithm: sha256WithRSAEncryption
         97:db:64:58:31:f8:fe:22:0f:42:f4:52:ec:01:e7:c1:58:b2:
         7e:67:0c:4b:cb:68:86:6c:81:6c:c6:d1:05:d5:e6:0b:e0:4e:
         d7:8c:9b:ce:58:92:90:f3:98:8f:61:30:7b:ab:ac:24:cd:a8:
         79:3b:5b:b6:44:58:1e:66:4f:c9:40:d9:b1:2e:60:d5:3d:c4:
         58:b3:9e:22:7e:a3:f3:b0:da:ee:da:26:4c:7a:1d:1e:fa:5f:
         76:ae:95:a1:2e:98:f3:71:44:0d:f1:af:d4:50:09:f8:a7:a5:
         7c:34:ca:03:4d:a9:c9:2a:25:57:e0:e4:dc:b7:b0:b5:71:e6:
         49:52:90:98:dc:49:c6:a2:08:f2:fe:7f:36:e6:dd:ca:60:64:
         69:5c:97:4c:08:32:bb:f2:f9:7c:71:98:11:09:46:87:3f:eb:
         42:db:3f:14:c7:d2:18:0c:11:df:5e:9f:3e:49:0c:28:a7:98:
         4a:f6:98:c3:e3:df:58:20:2d:ad:32:87:e5:2f:c4:9a:d5:78:
         7d:cc:04:07:54:52:9c:de:e3:21:17:03:d6:51:eb:ec:82:18:
         fb:4f:47:f8:6e:db:4c:62:2c:1e:a7:0b:61:2e:11:44:e0:44:
         c4:0a:cf:b3:90:af:66:1d:36:48:a3:ba:63:20:8d:cf:d4:8d:
         4f:21:a6:9a:ba:35:3d:13:b5:b0:c0:90:cf:43:9e:78:ec:46:
         67:80:1b:0d:37:a2:fc:3b:4f:32:a3:03:10:41:f4:84:a7:60:
         20:65:52:7a:94:b6:20:58:9e:16:74:b1:8a:43:98:02:44:bc:
         03:90:69:ed:cc:3d:c7:f5:a0:06:b6:ba:74:dd:2f:f8:fd:14:
         8f:79:2c:63:13:f6:74:61:ab:17:46:79:52:07:b9:ce:d0:1a:
         1c:7a:fd:9f:47:67:a3:91:af:8f:04:53:fb:1e:e5:27:b8:8e:
         bb:28:6e:cd:96:c7:f5:d7:7c:fd:6c:79:a8:f3:91:28:15:51:
         d2:4c:de:58:a4:02:55:02:71:e1:40:3f:59:22:35:77:ec:e1:
         73:81:29:f7:46:2a:70:e5:81:01:34:52:a1:2f:ad:dd:85:c7:
         af:f6:c4:49:ef:ff:93:b0:f5:72:9b:10:c1:bc:a1:5a:fe:70:
         7b:cd:f8:81:67:0a:f8:68:5e:22:7b:94:0a:b0:c1:2e:14:cc:
         09:60:ef:db:5b:a7:bd:e9:ff:a7:83:b4:3c:ac:e5:1c:3b:54:
         2d:03:a8:88:3a:63:cb:f9:81:a1:9e:42:47:0e:c9:8b:78:9a:
         c2:1c:0a:ec:c9:d0:7e:5e:15:5b:0b:b8:f5:44:2b:14:6e:fb:
         60:1b:62:d5:05:02:12:fc
-----BEGIN CERTIFICATE-----
MIIFMjCCAxqgAwIBAgIQAJ3XgcXjoAfj9j9HXWJUlDANBgkqhkiG9w0BAQsFADAz
MQswCQYDVQQGEwJDTjESMBAGA1UECgwJTmF0aW9uc2t5MRAwDgYDVQQDDAdSb290
IENBMB4XDTE3MDMzMTA0MDg0N1oXDTI3MDMyOTA0MDg0N1owMzELMAkGA1UEBhMC
Q04xEjAQBgNVBAoMCU5hdGlvbnNreTEQMA4GA1UEAwwHUm9vdCBDQTCCAiIwDQYJ
KoZIhvcNAQEBBQADggIPADCCAgoCggIBALlUBuKH3RTIgeUCEnz980k6e+7o0vZD
qpm72JAXK8GKTs6VMY0uWKMSmR4lz5HNEi5AEPp027gB4M6uu2eUoJ+76Fgs0Ygt
F/Zhj8R6YFJvnBWLuurf9GDyCht6Kjp+EwsaOHFt0oTq4Mbvsx0X16PedVQR4uS1
peI7h3UE+Mn8nT+mbtj9DWRWeoxwc8vF59jhHJE7OpFHV7oKSwcneXs3oBB8ik1N
gXy6avT0bPkm1+L1lL6GaX0IYWDLGncvc5aCo51s3fzSYayGN/wg8+DwjkE6jS+y
7fiWFfJfiPawefDKvoeiVj/4Ccl09VXd3IR/Pq6USkaRpj8NZtgaMWfmVMsAEltD
X1dmrGE1VG43OUnh/wQGZUE4uVI94J7PN3qpe3uB4lK6jFwtaMayWLZ9YnTZDZ1j
HrZD7nA+9z5OQbNDrw7hHEu7q/YkOOBMeYtpAiNm4ecV7ZlRaiGOohjyCuCdRx6e
5CQpNV3I1vEBezsaPqgvXab8yGahhMU9P9Avslh8j3h5heivu/7QnlLD+NJXzuG7
hYLZJ2rRxXA1thusJeoQmyPW7UdfhRb73ABOx++KfEPePuu4yKdM8u92aJ2Ur4mz
onuU98pIQ0aqxyAOdyLfjZeaG4jgCoe3Q2kUtV2J4GzX1toYh4jqdDoo0qeIVxuD
IHnQjl0G8CUlAgMBAAGjQjBAMA8GA1UdEwEB/wQFMAMBAf8wDgYDVR0PAQH/BAQD
AgEGMB0GA1UdDgQWBBSFUc6xMBkPiu+k68/jd4PcNl2TzzANBgkqhkiG9w0BAQsF
AAOCAgEAl9tkWDH4/iIPQvRS7AHnwViyfmcMS8tohmyBbMbRBdXmC+BO14ybzliS
kPOYj2Ewe6usJM2oeTtbtkRYHmZPyUDZsS5g1T3EWLOeIn6j87Da7tomTHodHvpf
dq6VoS6Y83FEDfGv1FAJ+KelfDTKA02pySolV+Dk3LewtXHmSVKQmNxJxqII8v5/
NubdymBkaVyXTAgyu/L5fHGYEQlGhz/rQts/FMfSGAwR316fPkkMKKeYSvaYw+Pf
WCAtrTKH5S/EmtV4fcwEB1RSnN7jIRcD1lHr7IIY+09H+G7bTGIsHqcLYS4RROBE
xArPs5CvZh02SKO6YyCNz9SNTyGmmro1PRO1sMCQz0OeeOxGZ4AbDTei/DtPMqMD
EEH0hKdgIGVSepS2IFieFnSxikOYAkS8A5Bp7cw9x/WgBra6dN0v+P0Uj3ksYxP2
dGGrF0Z5Uge5ztAaHHr9n0dno5GvjwRT+x7lJ7iOuyhuzZbH9dd8/Wx5qPORKBVR
0kzeWKQCVQJx4UA/WSI1d+zhc4Ep90YqcOWBATRSoS+t3YXHr/bESe//k7D1cpsQ
wbyhWv5we834gWcK+GheInuUCrDBLhTMCWDv21unven/p4O0PKzlHDtULQOoiDpj
y/mBoZ5CRw7Ji3iawhwK7MnQfl4VWwu49UQrFG77YBti1QUCEvw=
-----END CERTIFICATE-----
