Certificate:
    Data:
        Version: 3 (0x2)
        Serial Number:
            9d:d7:81:c5:e3:a0:07:e3:f6:3f:47:5d:62:54:95
    Signature Algorithm: sha256WithRSAEncryption
        Issuer: C=CN, O=Nationsky, CN=Root CA
        Validity
            Not Before: Mar 31 04:14:24 2017 GMT
            Not After : Mar 29 04:14:24 2027 GMT
        Subject: C=CN, O=Nationsky, CN=Root CA
        Subject Public Key Info:
            Public Key Algorithm: rsaEncryption
                Public-Key: (4096 bit)
                Modulus:
                    00:e7:0d:7b:47:c9:2c:1d:93:84:ee:98:20:87:fe:
                    dd:02:68:bf:b3:66:c6:9a:e1:71:32:b6:09:ae:be:
                    06:3a:90:2c:9c:2f:3a:75:53:9b:60:c1:8e:08:99:
                    bc:b4:51:02:8e:f7:fa:be:44:c1:0c:93:d5:51:44:
                    3b:de:df:eb:5d:7c:5f:19:05:41:8a:a7:5d:91:3a:
                    f8:22:1e:2f:27:53:3e:f1:a2:dd:19:e9:98:ea:22:
                    4b:cb:da:c5:4e:b8:f7:06:33:54:4c:3f:8b:69:8c:
                    79:af:18:a5:e4:14:0b:4c:ed:fa:2d:e3:86:c2:2e:
                    e5:69:3a:b6:c7:e0:fe:24:6d:bf:36:bc:1c:66:15:
                    49:4c:e8:58:6b:b5:dc:f4:62:21:b2:67:61:82:3b:
                    52:ee:e3:0c:0d:65:f8:e3:c4:0a:f1:bc:ab:c0:82:
                    19:df:30:38:b3:65:e8:c9:cf:85:a2:db:55:28:4b:
                    75:18:05:2d:81:3f:68:b0:d2:bd:42:58:09:c0:3b:
                    b6:b7:b9:09:e0:c2:f3:3f:73:bd:3a:72:96:ee:76:
                    e9:1d:c4:6e:12:83:f5:08:34:d4:25:e3:06:2a:2a:
                    ce:d7:6d:30:31:a1:5a:eb:de:a6:aa:5a:07:d9:b9:
                    63:64:89:d7:4b:66:70:e0:5c:a4:53:89:0e:7f:d8:
                    38:88:d5:97:3c:69:cc:c0:38:33:44:0a:03:f4:17:
                    cb:df:43:01:82:ed:6c:e7:7e:3d:a1:b2:9d:18:55:
                    84:24:57:62:d1:83:7f:9d:32:40:20:b5:5b:e1:16:
                    7e:4c:06:b1:69:a0:4f:3c:1d:7c:d2:42:d0:71:8b:
                    a9:93:00:1f:5c:58:a0:18:54:65:ff:95:0c:a2:30:
                    de:c4:2f:91:ba:00:c9:91:d8:4b:47:de:1c:c1:b5:
                    4a:08:84:30:30:08:93:da:28:cb:a8:c2:44:9c:4d:
                    c3:07:90:3a:7c:dd:23:1a:d4:67:e7:0e:d1:e1:73:
                    60:f0:70:e5:08:01:08:51:fc:8f:cb:a9:51:68:55:
                    a2:d5:dc:b6:fb:eb:ea:00:c1:42:43:8f:e9:ab:bf:
                    e4:c2:6b:f9:dd:fb:39:ad:46:5e:9f:93:46:ad:68:
                    3f:69:83:a8:d9:f5:14:b6:46:db:05:6f:b4:10:30:
                    03:f7:77:77:bf:06:da:04:c9:e4:76:e6:ec:2e:b9:
                    5f:14:08:f5:0b:82:75:3e:44:25:96:7d:aa:2b:06:
                    22:74:85:b7:64:ad:7e:cd:d8:93:d8:e1:de:44:16:
                    e0:28:02:68:f8:1e:a3:bf:aa:92:7b:50:8a:5f:cf:
                    c0:30:6e:5f:bc:c7:34:e6:fe:f0:bd:4c:66:41:ee:
                    30:e5:9b
                Exponent: 65537 (0x10001)
        X509v3 extensions:
            Authority Information Access: 
                CA Issuers - URI:http://root-ca.nscloud.local/root-ca.crt
                OCSP - URI:http://ocsp.root-ca.nscloud.local:9080

            X509v3 Authority Key Identifier: 
                keyid:85:51:CE:B1:30:19:0F:8A:EF:A4:EB:CF:E3:77:83:DC:36:5D:93:CF

            X509v3 Basic Constraints: critical
                CA:TRUE, pathlen:0
            X509v3 CRL Distribution Points: 

                Full Name:
                  URI:http://root-ca.nscloud.local/root-ca.crl

            X509v3 Extended Key Usage: 
                TLS Web Client Authentication, TLS Web Server Authentication
            X509v3 Key Usage: critical
                Certificate Sign, CRL Sign
            X509v3 Name Constraints: 
                Permitted:
                  DNS:example.com
                  DNS:example.org
                Excluded:
                  IP:0.0.0.0/0.0.0.0
                  IP:0:0:0:0:0:0:0:0/0:0:0:0:0:0:0:0

            X509v3 Subject Key Identifier: 
                42:7D:98:67:DB:63:F1:76:02:E5:4F:B4:BA:69:48:AD:ED:99:30:D7
    Signature Algorithm: sha256WithRSAEncryption
         3e:19:7f:f8:4d:2f:c1:b5:98:87:da:5c:8d:03:a6:44:a6:7a:
         4b:fd:40:51:ae:ce:1e:ff:9d:d4:68:fd:a9:5d:32:0f:60:3f:
         3e:df:43:5a:2e:e9:94:cb:43:d4:59:84:95:f1:1d:75:02:a3:
         12:93:3b:5a:82:1b:31:18:df:21:b4:4b:d3:08:13:77:35:93:
         fa:6a:62:b0:ac:d8:84:a9:35:44:ad:70:99:a9:dd:aa:f6:06:
         5e:74:18:fa:e4:72:19:a2:d7:54:3e:78:d4:da:82:99:be:f1:
         c3:c8:87:9f:07:ae:37:57:91:ad:28:86:97:ce:68:e8:3e:93:
         64:f7:5f:d4:08:9f:fd:13:bb:c2:e8:ed:04:1a:c5:b5:aa:d3:
         65:0a:77:e5:40:7c:cc:d8:b6:88:49:cc:38:6d:3d:fb:4c:9c:
         49:7c:51:f1:c2:8c:07:2d:99:e7:49:b0:0d:9c:3c:f0:05:e2:
         37:60:6e:3b:04:6b:76:72:9e:82:ce:07:f3:35:02:e4:e9:cf:
         be:65:30:10:6c:05:0f:3d:c3:c9:1a:9d:ff:de:2e:39:5c:35:
         42:12:b4:7e:c3:78:85:27:ef:dc:9f:7b:2e:d5:19:84:ff:02:
         13:d3:2d:ca:a3:df:86:35:c3:55:01:a6:a9:2f:c7:2d:81:28:
         8f:49:86:f6:33:11:6b:f2:9e:3d:37:e0:e1:39:74:7b:9d:e5:
         58:e8:53:17:fa:7f:0e:1f:78:25:9a:8d:de:b5:c3:0f:21:a6:
         bd:21:d7:76:20:60:3c:1f:73:ad:a1:71:22:8e:6a:79:9c:72:
         b9:5c:39:5d:47:3c:0e:c2:d7:20:21:d2:04:e4:41:cd:8b:c8:
         74:09:fa:f7:fd:e4:5b:9c:93:d7:a3:21:b0:d8:8c:de:aa:7a:
         7f:dd:b2:9a:b6:d6:c0:2a:70:bd:92:c2:cc:ab:ef:cd:da:cb:
         15:e8:fa:cd:5b:bd:ad:24:92:07:29:6c:1a:42:7f:11:88:32:
         a7:03:10:c8:7f:55:ec:ec:ec:09:69:e8:ad:0f:e2:62:ae:6e:
         ef:f7:33:a5:f3:12:eb:71:0a:18:6d:03:8a:46:7d:d2:33:0e:
         f8:4d:07:fb:c0:9f:77:c4:e5:9e:48:0d:cb:ad:38:c1:d8:e6:
         d6:4b:c4:25:59:0e:7f:39:9d:1a:d4:b8:ef:ca:93:3e:74:ee:
         c0:cb:45:e2:b3:72:db:20:0b:85:a4:35:61:48:ab:aa:db:d8:
         bc:c8:29:8c:f2:ea:12:83:ad:51:50:51:eb:dc:d0:f9:2c:63:
         c0:6a:d5:c9:85:84:fc:05:d5:79:2d:8a:22:0c:0a:71:db:f3:
         42:7f:0b:c8:bb:11:f2:fd
-----BEGIN CERTIFICATE-----
MIIGizCCBHOgAwIBAgIQAJ3XgcXjoAfj9j9HXWJUlTANBgkqhkiG9w0BAQsFADAz
MQswCQYDVQQGEwJDTjESMBAGA1UECgwJTmF0aW9uc2t5MRAwDgYDVQQDDAdSb290
IENBMB4XDTE3MDMzMTA0MTQyNFoXDTI3MDMyOTA0MTQyNFowMzELMAkGA1UEBhMC
Q04xEjAQBgNVBAoMCU5hdGlvbnNreTEQMA4GA1UEAwwHUm9vdCBDQTCCAiIwDQYJ
KoZIhvcNAQEBBQADggIPADCCAgoCggIBAOcNe0fJLB2ThO6YIIf+3QJov7Nmxprh
cTK2Ca6+BjqQLJwvOnVTm2DBjgiZvLRRAo73+r5EwQyT1VFEO97f6118XxkFQYqn
XZE6+CIeLydTPvGi3RnpmOoiS8vaxU649wYzVEw/i2mMea8YpeQUC0zt+i3jhsIu
5Wk6tsfg/iRtvza8HGYVSUzoWGu13PRiIbJnYYI7Uu7jDA1l+OPECvG8q8CCGd8w
OLNl6MnPhaLbVShLdRgFLYE/aLDSvUJYCcA7tre5CeDC8z9zvTpylu526R3EbhKD
9Qg01CXjBioqztdtMDGhWuvepqpaB9m5Y2SJ10tmcOBcpFOJDn/YOIjVlzxpzMA4
M0QKA/QXy99DAYLtbOd+PaGynRhVhCRXYtGDf50yQCC1W+EWfkwGsWmgTzwdfNJC
0HGLqZMAH1xYoBhUZf+VDKIw3sQvkboAyZHYS0feHMG1SgiEMDAIk9ooy6jCRJxN
wweQOnzdIxrUZ+cO0eFzYPBw5QgBCFH8j8upUWhVotXctvvr6gDBQkOP6au/5MJr
+d37Oa1GXp+TRq1oP2mDqNn1FLZG2wVvtBAwA/d3d78G2gTJ5Hbm7C65XxQI9QuC
dT5EJZZ9qisGInSFt2Stfs3Yk9jh3kQW4CgCaPgeo7+qkntQil/PwDBuX7zHNOb+
8L1MZkHuMOWbAgMBAAGjggGZMIIBlTB4BggrBgEFBQcBAQRsMGowNAYIKwYBBQUH
MAKGKGh0dHA6Ly9yb290LWNhLm5zY2xvdWQubG9jYWwvcm9vdC1jYS5jcnQwMgYI
KwYBBQUHMAGGJmh0dHA6Ly9vY3NwLnJvb3QtY2EubnNjbG91ZC5sb2NhbDo5MDgw
MB8GA1UdIwQYMBaAFIVRzrEwGQ+K76Trz+N3g9w2XZPPMBIGA1UdEwEB/wQIMAYB
Af8CAQAwOQYDVR0fBDIwMDAuoCygKoYoaHR0cDovL3Jvb3QtY2EubnNjbG91ZC5s
b2NhbC9yb290LWNhLmNybDAdBgNVHSUEFjAUBggrBgEFBQcDAgYIKwYBBQUHAwEw
DgYDVR0PAQH/BAQDAgEGMFsGA1UdHgRUMFKgHjANggtleGFtcGxlLmNvbTANggtl
eGFtcGxlLm9yZ6EwMAqHCAAAAAAAAAAAMCKHIAAAAAAAAAAAAAAAAAAAAAAAAAAA
AAAAAAAAAAAAAAAAMB0GA1UdDgQWBBRCfZhn22PxdgLlT7S6aUit7Zkw1zANBgkq
hkiG9w0BAQsFAAOCAgEAPhl/+E0vwbWYh9pcjQOmRKZ6S/1AUa7OHv+d1Gj9qV0y
D2A/Pt9DWi7plMtD1FmElfEddQKjEpM7WoIbMRjfIbRL0wgTdzWT+mpisKzYhKk1
RK1wmandqvYGXnQY+uRyGaLXVD541NqCmb7xw8iHnweuN1eRrSiGl85o6D6TZPdf
1Aif/RO7wujtBBrFtarTZQp35UB8zNi2iEnMOG09+0ycSXxR8cKMBy2Z50mwDZw8
8AXiN2BuOwRrdnKegs4H8zUC5OnPvmUwEGwFDz3DyRqd/94uOVw1QhK0fsN4hSfv
3J97LtUZhP8CE9MtyqPfhjXDVQGmqS/HLYEoj0mG9jMRa/KePTfg4Tl0e53lWOhT
F/p/Dh94JZqN3rXDDyGmvSHXdiBgPB9zraFxIo5qeZxyuVw5XUc8DsLXICHSBORB
zYvIdAn69/3kW5yT16MhsNiM3qp6f92ymrbWwCpwvZLCzKvvzdrLFej6zVu9rSSS
BylsGkJ/EYgypwMQyH9V7OzsCWnorQ/iYq5u7/czpfMS63EKGG0DikZ90jMO+E0H
+8Cfd8TlnkgNy604wdjm1kvEJVkOfzmdGtS478qTPnTuwMtF4rNy2yALhaQ1YUir
qtvYvMgpjPLqEoOtUVBR69zQ+SxjwGrVyYWE/AXVeS2KIgwKcdvzQn8LyLsR8v0=
-----END CERTIFICATE-----
