Certificate:
    Data:
        Version: 3 (0x2)
        Serial Number:
            9d:d7:81:c5:e3:a0:07:e3:f6:3f:47:5d:62:54:93
    Signature Algorithm: sha256WithRSAEncryption
        Issuer: C=CN, O=Nationsky, CN=Root CA
        Validity
            Not Before: Mar 31 03:59:52 2017 GMT
            Not After : Mar 29 03:59:52 2027 GMT
        Subject: C=CN, O=Nationsky, CN=Root CA
        Subject Public Key Info:
            Public Key Algorithm: rsaEncryption
                Public-Key: (4096 bit)
                Modulus:
                    00:b6:5b:92:54:f4:31:9e:77:e4:25:3b:1a:c0:95:
                    08:13:aa:b8:14:b9:0e:10:8c:f0:b3:4c:33:cc:ed:
                    57:0c:0a:96:ea:52:04:cc:6b:92:3c:3a:f8:71:68:
                    33:c0:a9:6e:f7:6c:80:bc:99:b6:9d:aa:52:42:e3:
                    05:08:90:43:b8:d8:a8:06:8d:15:ef:b0:d7:0f:52:
                    bb:5c:88:90:ea:91:61:f6:ec:c0:53:2f:cc:30:cb:
                    83:2a:75:33:0b:6f:d2:67:3d:a7:c8:05:46:88:78:
                    1d:4c:ff:61:46:4c:5d:02:e5:fa:93:59:fd:32:7e:
                    13:da:36:3e:2f:db:91:94:89:2b:77:ea:1d:df:44:
                    1a:b1:10:a4:03:8f:b2:58:4c:79:7f:10:5c:2b:9f:
                    4f:25:cf:39:d6:c3:eb:cf:da:54:01:04:8d:e0:c7:
                    15:73:00:e3:f5:af:42:5d:2e:55:ec:05:a6:6d:7e:
                    c9:e9:5e:c9:48:1d:57:18:d0:7b:9b:46:36:2d:68:
                    58:3d:21:66:b8:0d:8f:b2:9f:63:1e:7a:0d:a0:99:
                    22:8f:01:e9:f5:4f:f4:b0:74:97:f4:79:e0:f6:64:
                    c3:c1:49:d6:e6:e9:e5:24:93:39:e8:de:70:1e:cf:
                    de:ce:00:c6:2f:dd:eb:01:08:0d:7a:cd:38:ad:db:
                    30:f2:cc:2c:ef:69:2b:ee:8a:47:fb:88:6e:eb:2d:
                    be:84:7c:11:39:96:e5:a8:aa:27:b6:95:af:3e:9d:
                    c8:d5:be:f8:db:a4:88:7b:ff:f8:15:9f:5b:02:7b:
                    b9:f5:d5:08:52:71:2f:5c:c9:22:0f:ef:fb:aa:d6:
                    21:7a:3c:ed:64:36:43:f0:77:f4:67:d6:40:f2:35:
                    8e:bc:d7:aa:05:12:6e:ab:c4:26:32:c0:f2:59:3f:
                    5a:e9:f9:7f:80:a8:f3:21:af:2f:4a:f3:2a:b9:73:
                    79:32:29:84:11:af:fd:b0:b9:44:a9:84:ac:54:ac:
                    50:96:f1:d8:ce:72:0f:a0:f0:ad:4c:01:11:5d:28:
                    11:6c:9a:f5:f0:00:34:9b:a4:6a:61:88:c9:12:2d:
                    2c:3d:13:d5:6b:82:9b:08:33:58:53:9e:b7:a2:cb:
                    1f:4b:20:ba:e2:44:fc:6a:d2:d6:c0:5e:cb:df:89:
                    13:e8:8f:eb:8d:12:f3:49:b3:e3:88:be:93:64:18:
                    00:bf:b1:10:6d:f7:90:e2:b5:29:b2:52:64:f3:01:
                    96:d1:ff:f3:49:b3:8d:4d:66:0b:fa:b1:29:ab:74:
                    f5:a3:25:68:30:3b:91:ba:92:67:28:be:39:d8:f4:
                    4d:7f:64:34:01:72:fa:f9:55:6b:37:91:c9:b5:9f:
                    41:cf:31
                Exponent: 65537 (0x10001)
        X509v3 extensions:
            Authority Information Access: 
                CA Issuers - URI:http://nscloud.nscloud.local/nscloud.crt
                OCSP - URI:http://ocsp.nscloud.nscloud.local:9080

            X509v3 Authority Key Identifier: 
                keyid:20:E6:11:30:70:FC:BE:A6:FE:6D:23:DB:25:8A:47:AD:EF:11:59:DF

            X509v3 Basic Constraints: critical
                CA:TRUE, pathlen:0
            X509v3 CRL Distribution Points: 

                Full Name:
                  URI:http://nscloud.nscloud.local/nscloud.crl

            X509v3 Extended Key Usage: 
                TLS Web Client Authentication, TLS Web Server Authentication
            X509v3 Key Usage: critical
                Certificate Sign, CRL Sign
            X509v3 Name Constraints: 
                Permitted:
                  DNS:example.com
                  DNS:example.org
                Excluded:
                  IP:0.0.0.0/0.0.0.0
                  IP:0:0:0:0:0:0:0:0/0:0:0:0:0:0:0:0

            X509v3 Subject Key Identifier: 
                B5:8F:47:63:D2:5C:16:C6:C6:34:4C:C1:E0:45:C9:FD:65:D7:5D:79
    Signature Algorithm: sha256WithRSAEncryption
         50:78:c8:71:22:af:c6:4e:0d:0c:11:d7:4a:c0:3c:fd:1e:fd:
         ab:14:03:a5:3b:71:48:27:48:64:6b:48:62:48:06:13:03:80:
         b5:c6:9a:09:0f:a6:c5:6f:58:f0:c5:85:62:37:ce:e1:4c:78:
         17:5f:8a:01:16:bb:cb:ab:1d:a4:d6:4e:db:45:e6:d3:26:23:
         46:17:26:32:4a:a1:b4:6e:68:a4:93:24:09:68:4b:3b:9a:7b:
         36:c8:22:eb:d1:e9:85:90:4c:06:86:29:0f:43:88:72:86:3b:
         e5:63:de:d7:86:10:de:6e:26:3a:5c:50:f2:31:8e:7c:9d:d3:
         22:b2:35:65:60:99:a6:d5:87:37:ab:a1:40:d1:a0:bc:b2:4c:
         2e:7d:6a:8f:d6:68:76:83:70:a2:8e:1a:32:f6:b9:b4:87:88:
         70:c6:c5:9f:4e:7a:c0:f9:79:ac:ce:76:dc:16:78:37:5d:ea:
         c3:62:38:9a:a5:2c:ad:16:b9:10:f6:a4:0e:a1:2a:82:09:73:
         c0:5f:18:ca:4e:34:92:2c:6b:a3:de:5a:c1:8e:e3:8e:07:5c:
         8d:28:68:cb:54:92:22:0d:e6:7b:28:7f:2c:5c:92:c7:12:4d:
         90:53:d2:34:1a:3a:51:d6:6e:ad:1a:4e:5a:c3:b3:6f:07:e3:
         18:95:f3:d7:86:45:11:31:0b:60:74:bd:9e:9c:66:3b:81:a2:
         0d:66:e9:d0:10:9c:ef:27:5b:b2:2a:b7:4c:b5:3e:ff:07:c9:
         28:36:88:54:12:ab:59:3d:68:bb:43:55:b5:05:6b:a8:20:4d:
         cf:0b:e5:3b:a1:d1:41:9e:1a:99:19:4e:de:80:96:b8:26:96:
         a5:04:7c:5c:c7:b6:00:6f:e0:74:9f:df:7b:ee:34:c3:2d:bf:
         49:05:1b:1f:6b:03:ee:df:60:2b:19:41:61:98:e3:ad:3b:75:
         19:86:95:b5:2d:ea:d5:e2:83:56:ae:0e:96:b7:ef:fd:62:bc:
         8c:97:ec:a7:ed:81:c1:b7:07:01:6a:d8:16:d3:e0:9c:53:e3:
         71:60:fc:33:d3:30:ba:fc:c9:f3:41:ed:d7:da:10:64:00:89:
         79:e5:6b:c3:95:9c:96:e8:52:49:72:3b:b9:9e:54:36:b6:d1:
         fe:2a:f7:59:61:3b:b4:77:de:43:23:e0:ea:98:72:17:b8:12:
         dd:36:76:84:84:25:50:d4:1a:25:f0:e6:06:08:26:d4:8b:b4:
         b2:b7:a0:2c:9e:c6:fc:f6:2f:2b:0e:28:29:fa:13:aa:97:d1:
         bf:b5:48:e5:3b:fe:83:e5:c3:a4:d6:4b:90:8d:b3:72:be:b3:
         5e:88:d3:2f:23:4e:43:a3
-----BEGIN CERTIFICATE-----
MIIGizCCBHOgAwIBAgIQAJ3XgcXjoAfj9j9HXWJUkzANBgkqhkiG9w0BAQsFADAz
MQswCQYDVQQGEwJDTjESMBAGA1UECgwJTmF0aW9uc2t5MRAwDgYDVQQDDAdSb290
IENBMB4XDTE3MDMzMTAzNTk1MloXDTI3MDMyOTAzNTk1MlowMzELMAkGA1UEBhMC
Q04xEjAQBgNVBAoMCU5hdGlvbnNreTEQMA4GA1UEAwwHUm9vdCBDQTCCAiIwDQYJ
KoZIhvcNAQEBBQADggIPADCCAgoCggIBALZbklT0MZ535CU7GsCVCBOquBS5DhCM
8LNMM8ztVwwKlupSBMxrkjw6+HFoM8CpbvdsgLyZtp2qUkLjBQiQQ7jYqAaNFe+w
1w9Su1yIkOqRYfbswFMvzDDLgyp1Mwtv0mc9p8gFRoh4HUz/YUZMXQLl+pNZ/TJ+
E9o2Pi/bkZSJK3fqHd9EGrEQpAOPslhMeX8QXCufTyXPOdbD68/aVAEEjeDHFXMA
4/WvQl0uVewFpm1+yeleyUgdVxjQe5tGNi1oWD0hZrgNj7KfYx56DaCZIo8B6fVP
9LB0l/R54PZkw8FJ1ubp5SSTOejecB7P3s4Axi/d6wEIDXrNOK3bMPLMLO9pK+6K
R/uIbustvoR8ETmW5aiqJ7aVrz6dyNW++NukiHv/+BWfWwJ7ufXVCFJxL1zJIg/v
+6rWIXo87WQ2Q/B39GfWQPI1jrzXqgUSbqvEJjLA8lk/Wun5f4Co8yGvL0rzKrlz
eTIphBGv/bC5RKmErFSsUJbx2M5yD6DwrUwBEV0oEWya9fAANJukamGIyRItLD0T
1WuCmwgzWFOet6LLH0sguuJE/GrS1sBey9+JE+iP640S80mz44i+k2QYAL+xEG33
kOK1KbJSZPMBltH/80mzjU1mC/qxKat09aMlaDA7kbqSZyi+Odj0TX9kNAFy+vlV
azeRybWfQc8xAgMBAAGjggGZMIIBlTB4BggrBgEFBQcBAQRsMGowNAYIKwYBBQUH
MAKGKGh0dHA6Ly9uc2Nsb3VkLm5zY2xvdWQubG9jYWwvbnNjbG91ZC5jcnQwMgYI
KwYBBQUHMAGGJmh0dHA6Ly9vY3NwLm5zY2xvdWQubnNjbG91ZC5sb2NhbDo5MDgw
MB8GA1UdIwQYMBaAFCDmETBw/L6m/m0j2yWKR63vEVnfMBIGA1UdEwEB/wQIMAYB
Af8CAQAwOQYDVR0fBDIwMDAuoCygKoYoaHR0cDovL25zY2xvdWQubnNjbG91ZC5s
b2NhbC9uc2Nsb3VkLmNybDAdBgNVHSUEFjAUBggrBgEFBQcDAgYIKwYBBQUHAwEw
DgYDVR0PAQH/BAQDAgEGMFsGA1UdHgRUMFKgHjANggtleGFtcGxlLmNvbTANggtl
eGFtcGxlLm9yZ6EwMAqHCAAAAAAAAAAAMCKHIAAAAAAAAAAAAAAAAAAAAAAAAAAA
AAAAAAAAAAAAAAAAMB0GA1UdDgQWBBS1j0dj0lwWxsY0TMHgRcn9ZdddeTANBgkq
hkiG9w0BAQsFAAOCAgEAUHjIcSKvxk4NDBHXSsA8/R79qxQDpTtxSCdIZGtIYkgG
EwOAtcaaCQ+mxW9Y8MWFYjfO4Ux4F1+KARa7y6sdpNZO20Xm0yYjRhcmMkqhtG5o
pJMkCWhLO5p7Nsgi69HphZBMBoYpD0OIcoY75WPe14YQ3m4mOlxQ8jGOfJ3TIrI1
ZWCZptWHN6uhQNGgvLJMLn1qj9ZodoNwoo4aMva5tIeIcMbFn056wPl5rM523BZ4
N13qw2I4mqUsrRa5EPakDqEqgglzwF8Yyk40kixro95awY7jjgdcjShoy1SSIg3m
eyh/LFySxxJNkFPSNBo6UdZurRpOWsOzbwfjGJXz14ZFETELYHS9npxmO4GiDWbp
0BCc7ydbsiq3TLU+/wfJKDaIVBKrWT1ou0NVtQVrqCBNzwvlO6HRQZ4amRlO3oCW
uCaWpQR8XMe2AG/gdJ/fe+40wy2/SQUbH2sD7t9gKxlBYZjjrTt1GYaVtS3q1eKD
Vq4Olrfv/WK8jJfsp+2BwbcHAWrYFtPgnFPjcWD8M9MwuvzJ80Ht19oQZACJeeVr
w5WcluhSSXI7uZ5UNrbR/ir3WWE7tHfeQyPg6phyF7gS3TZ2hIQlUNQaJfDmBggm
1Iu0sregLJ7G/PYvKw4oKfoTqpfRv7VI5Tv+g+XDpNZLkI2zcr6zXojTLyNOQ6M=
-----END CERTIFICATE-----
