Certificate:
    Data:
        Version: 3 (0x2)
        Serial Number:
            9d:d7:81:c5:e3:a0:07:e3:f6:3f:47:5d:62:54:92
    Signature Algorithm: sha256WithRSAEncryption
        Issuer: C=CN, O=Nationsky, CN=Root CA
        Validity
            Not Before: Mar 31 02:58:12 2017 GMT
            Not After : Mar 29 02:58:12 2027 GMT
        Subject: C=CN, O=Nationsky, CN=Root CA
        Subject Public Key Info:
            Public Key Algorithm: rsaEncryption
                Public-Key: (4096 bit)
                Modulus:
                    00:e7:98:98:18:d9:51:78:df:92:da:7e:42:c7:38:
                    92:54:ae:3b:f1:df:a8:cd:2f:3d:0d:7d:2f:56:ba:
                    14:e3:16:d4:f9:38:67:29:9b:a8:24:03:79:7c:b9:
                    88:88:9f:59:87:22:9b:a2:bf:27:4e:b5:53:62:b3:
                    70:f0:93:fa:9f:69:23:98:a8:04:08:3b:a5:b3:76:
                    5e:a7:d3:8a:49:85:af:53:6f:b1:f0:3c:fa:f6:a3:
                    73:28:b3:96:16:ce:9f:c1:b2:e0:d3:f4:59:3f:47:
                    a6:9b:5e:63:0e:6b:19:b9:d1:69:72:09:4e:ff:d4:
                    fc:46:60:53:66:97:09:e1:c2:4e:56:e6:67:8d:9c:
                    6a:db:1f:c7:3b:a8:67:38:ad:2f:8c:91:3f:c4:76:
                    99:ed:db:8d:b9:f2:da:20:17:ee:78:96:d1:35:e1:
                    06:46:b2:f8:2d:74:19:6f:80:15:26:b1:1a:0e:89:
                    82:31:0e:17:53:57:ea:af:60:e3:b2:13:0f:c4:60:
                    8b:76:2a:0b:0b:52:06:99:3f:57:7f:73:72:34:c0:
                    b5:5c:c1:88:a2:b1:bc:39:43:79:09:cb:4a:ce:18:
                    25:34:b0:14:93:c9:7e:9c:96:6c:dc:a4:38:3b:28:
                    cc:fa:f1:c1:0f:40:43:6f:05:c2:f1:4a:79:a5:e0:
                    63:07:3d:3c:55:ba:5a:d3:66:23:e3:1c:61:f1:8f:
                    21:b1:e7:b0:4c:ab:a1:c2:1f:2f:9f:27:7a:c7:0a:
                    10:f8:26:e2:3f:9b:4a:67:72:4f:d8:a7:c6:d7:21:
                    05:65:94:d3:3c:bc:89:73:c4:59:76:df:a1:b5:0d:
                    0e:99:b1:b6:7c:8d:d2:17:df:21:d6:e5:81:ed:fd:
                    cd:6b:20:c6:96:e3:2b:36:a1:13:e9:04:b3:c4:7c:
                    d6:78:30:1f:f1:46:2f:87:9a:87:c1:8d:06:90:9f:
                    f6:1b:9b:8b:b0:d4:60:c6:0f:5c:f3:11:a1:ef:83:
                    d7:41:d9:03:cb:64:d2:43:b6:89:a3:98:ef:40:85:
                    b2:1f:04:80:0c:c5:bb:49:35:ad:df:e8:4a:5d:84:
                    7b:2d:6a:6e:db:a5:13:c7:ce:db:b5:a5:c2:9b:89:
                    67:93:75:a6:e2:e9:c9:60:0a:0f:1d:50:a8:ec:e7:
                    fe:bc:c2:a4:37:d8:83:4e:89:49:73:5e:fc:87:59:
                    de:34:ce:e7:a6:2e:ef:8c:40:8b:74:05:64:7c:92:
                    94:03:53:3b:9a:7a:39:59:68:b2:08:a2:98:55:7f:
                    9a:8a:c4:bd:41:8d:1f:ca:ab:f1:d9:77:a4:0a:8e:
                    d1:d5:0a:17:28:86:c0:8c:46:34:5c:c7:03:13:06:
                    ae:5d:77
                Exponent: 65537 (0x10001)
        X509v3 extensions:
            X509v3 Basic Constraints: critical
                CA:TRUE
            X509v3 Key Usage: critical
                Certificate Sign, CRL Sign
            X509v3 Subject Key Identifier: 
                20:E6:11:30:70:FC:BE:A6:FE:6D:23:DB:25:8A:47:AD:EF:11:59:DF
    Signature Algorithm: sha256WithRSAEncryption
         b6:d7:02:4a:86:84:7b:ca:19:ed:16:3e:24:64:71:01:20:37:
         28:11:1c:4f:17:d4:9f:b0:b2:f7:7e:89:73:38:7f:13:71:13:
         81:ce:aa:1b:ba:fc:28:2b:ee:11:03:05:07:d3:38:95:0a:c6:
         9c:f6:91:f0:6b:25:c7:80:50:e0:0d:b1:88:63:d8:ff:06:c3:
         e2:1e:ec:22:89:fd:18:6b:46:c1:9e:04:06:fa:8c:60:0b:fd:
         87:42:77:54:21:f1:48:a4:e6:01:b1:51:8b:35:0a:66:1c:ba:
         0c:9a:53:c5:63:a3:b6:d3:9c:5d:c1:e7:cd:f0:ef:7d:cb:20:
         b6:09:a4:81:6e:a0:4c:a1:37:d7:e3:fb:80:0e:e2:f9:34:bd:
         0a:97:3f:e8:52:cf:8b:07:06:03:06:31:05:01:6f:c6:ea:63:
         5b:0f:f8:8e:1a:5f:38:bc:2d:6c:4b:5e:e1:d9:61:24:c7:bd:
         e5:81:85:f1:b5:b3:79:68:16:f8:f7:83:96:15:41:45:88:58:
         36:03:41:a1:27:5c:c0:e3:6c:fc:9c:1e:8b:55:ef:a5:df:ba:
         01:dd:ee:5e:6c:ac:a4:46:94:70:95:c6:aa:b7:ff:23:e5:b1:
         5e:30:0c:b8:5c:04:b7:f2:21:56:89:0f:e6:54:49:3e:c0:02:
         b8:d6:74:cf:2b:65:fa:0c:2a:3a:dc:62:89:1b:0a:1a:51:13:
         22:9d:f0:99:68:16:ca:36:3f:1c:4e:96:e6:af:1f:53:cd:f3:
         33:ad:d7:9b:f3:ab:e9:43:d3:4e:6a:31:04:99:3f:c4:9f:64:
         60:06:de:dc:f1:38:a3:c7:ee:6f:c3:b8:65:ba:b2:b0:74:2d:
         f3:80:61:2d:a8:85:de:b8:49:15:52:58:8b:d7:7c:f6:67:42:
         c1:72:18:5a:b2:e4:de:1a:a3:bd:b6:60:85:5a:23:40:ca:cf:
         6a:f1:e1:3c:ae:09:aa:80:14:1d:97:de:bc:1f:a0:3d:68:5c:
         32:36:5f:23:3d:b6:76:43:9c:74:b3:84:c5:4f:c0:19:a9:95:
         28:86:81:a1:b2:bd:20:85:19:0f:a8:1a:5a:75:0c:8b:9a:fd:
         57:c7:9c:e8:20:51:96:d7:73:23:ac:08:74:97:b8:1e:57:2a:
         27:b5:f7:85:e2:36:95:47:3c:20:67:ca:35:b5:ea:24:54:39:
         d7:96:3f:2a:33:7c:6e:3e:be:fe:88:1c:b2:8c:09:85:b0:f5:
         78:8c:ce:0f:0f:0e:14:a1:de:e1:fb:83:6a:1c:03:6f:2f:43:
         9a:f2:61:76:01:f3:95:42:d3:34:9e:dc:fc:f4:ca:c4:3a:c7:
         ca:40:31:a0:07:ff:4d:5c
-----BEGIN CERTIFICATE-----
MIIFMjCCAxqgAwIBAgIQAJ3XgcXjoAfj9j9HXWJUkjANBgkqhkiG9w0BAQsFADAz
MQswCQYDVQQGEwJDTjESMBAGA1UECgwJTmF0aW9uc2t5MRAwDgYDVQQDDAdSb290
IENBMB4XDTE3MDMzMTAyNTgxMloXDTI3MDMyOTAyNTgxMlowMzELMAkGA1UEBhMC
Q04xEjAQBgNVBAoMCU5hdGlvbnNreTEQMA4GA1UEAwwHUm9vdCBDQTCCAiIwDQYJ
KoZIhvcNAQEBBQADggIPADCCAgoCggIBAOeYmBjZUXjfktp+Qsc4klSuO/HfqM0v
PQ19L1a6FOMW1Pk4ZymbqCQDeXy5iIifWYcim6K/J061U2KzcPCT+p9pI5ioBAg7
pbN2XqfTikmFr1NvsfA8+vajcyizlhbOn8Gy4NP0WT9HppteYw5rGbnRaXIJTv/U
/EZgU2aXCeHCTlbmZ42catsfxzuoZzitL4yRP8R2me3bjbny2iAX7niW0TXhBkay
+C10GW+AFSaxGg6JgjEOF1NX6q9g47ITD8Rgi3YqCwtSBpk/V39zcjTAtVzBiKKx
vDlDeQnLSs4YJTSwFJPJfpyWbNykODsozPrxwQ9AQ28FwvFKeaXgYwc9PFW6WtNm
I+McYfGPIbHnsEyrocIfL58nescKEPgm4j+bSmdyT9inxtchBWWU0zy8iXPEWXbf
obUNDpmxtnyN0hffIdblge39zWsgxpbjKzahE+kEs8R81ngwH/FGL4eah8GNBpCf
9hubi7DUYMYPXPMRoe+D10HZA8tk0kO2iaOY70CFsh8EgAzFu0k1rd/oSl2Eey1q
btulE8fO27WlwpuJZ5N1puLpyWAKDx1QqOzn/rzCpDfYg06JSXNe/IdZ3jTO56Yu
74xAi3QFZHySlANTO5p6OVlosgiimFV/morEvUGNH8qr8dl3pAqO0dUKFyiGwIxG
NFzHAxMGrl13AgMBAAGjQjBAMA8GA1UdEwEB/wQFMAMBAf8wDgYDVR0PAQH/BAQD
AgEGMB0GA1UdDgQWBBQg5hEwcPy+pv5tI9sliket7xFZ3zANBgkqhkiG9w0BAQsF
AAOCAgEAttcCSoaEe8oZ7RY+JGRxASA3KBEcTxfUn7Cy936Jczh/E3ETgc6qG7r8
KCvuEQMFB9M4lQrGnPaR8Gslx4BQ4A2xiGPY/wbD4h7sIon9GGtGwZ4EBvqMYAv9
h0J3VCHxSKTmAbFRizUKZhy6DJpTxWOjttOcXcHnzfDvfcsgtgmkgW6gTKE31+P7
gA7i+TS9Cpc/6FLPiwcGAwYxBQFvxupjWw/4jhpfOLwtbEte4dlhJMe95YGF8bWz
eWgW+PeDlhVBRYhYNgNBoSdcwONs/Jwei1Xvpd+6Ad3uXmyspEaUcJXGqrf/I+Wx
XjAMuFwEt/IhVokP5lRJPsACuNZ0zytl+gwqOtxiiRsKGlETIp3wmWgWyjY/HE6W
5q8fU83zM63Xm/Or6UPTTmoxBJk/xJ9kYAbe3PE4o8fub8O4ZbqysHQt84BhLaiF
3rhJFVJYi9d89mdCwXIYWrLk3hqjvbZghVojQMrPavHhPK4JqoAUHZfevB+gPWhc
MjZfIz22dkOcdLOExU/AGamVKIaBobK9IIUZD6gaWnUMi5r9V8ec6CBRltdzI6wI
dJe4HlcqJ7X3heI2lUc8IGfKNbXqJFQ515Y/KjN8bj6+/ogcsowJhbD1eIzODw8O
FKHe4fuDahwDby9DmvJhdgHzlULTNJ7c/PTKxDrHykAxoAf/TVw=
-----END CERTIFICATE-----
