Certificate:
    Data:
        Version: 3 (0x2)
        Serial Number:
            ee:ef:07:c9:c1:f9:6c:43:1b:80:b6:b7:f9:d4:ec:39
    Signature Algorithm: sha256WithRSAEncryption
        Issuer: C=GB, O=Example, CN=Root CA
        Validity
            Not Before: Mar 29 09:59:46 2017 GMT
            Not After : Mar 27 09:59:46 2027 GMT
        Subject: C=GB, O=Example, CN=Root CA
        Subject Public Key Info:
            Public Key Algorithm: rsaEncryption
                Public-Key: (4096 bit)
                Modulus:
                    00:d0:1e:cf:c5:4c:9e:08:a1:57:93:0d:70:94:f5:
                    24:17:89:b8:e8:f5:91:43:29:60:45:72:b0:1e:86:
                    8a:eb:66:2b:69:80:14:51:c3:81:6c:07:0f:fb:8e:
                    d3:c2:de:cd:7e:d0:e8:58:30:e3:bb:db:20:97:04:
                    27:99:ce:9f:dc:4d:1b:52:51:b6:c1:6e:b9:a2:d0:
                    76:e8:e4:cb:90:51:49:42:a8:5a:e7:70:f4:d8:7c:
                    6b:da:eb:62:cb:42:60:59:fe:85:6f:bc:61:07:69:
                    d1:98:fb:b1:68:93:2f:7e:79:1d:bd:75:e7:29:c7:
                    62:c5:80:9a:6f:71:e6:9e:35:43:85:a5:f1:d4:43:
                    9a:6b:7a:4a:a0:6e:64:ab:18:42:9e:85:5d:04:ba:
                    bc:ad:6b:84:14:da:6d:a3:69:64:d1:01:a1:a2:b8:
                    a4:e5:b0:60:5f:94:68:b0:66:42:51:53:80:8c:48:
                    29:2c:56:3e:32:43:5c:ff:ea:67:bb:7d:4c:23:1d:
                    2c:4f:83:06:82:4f:75:e3:98:a4:87:9b:c3:31:18:
                    41:5c:1a:6d:31:50:cf:b7:e4:3d:0a:17:a1:88:e0:
                    ed:53:8f:bb:32:00:92:3f:19:ea:0c:70:71:72:c7:
                    14:9b:dd:f2:65:33:75:a7:db:ca:fb:65:33:92:e2:
                    74:e8:78:78:31:7e:29:22:38:10:1f:a4:b1:5c:d8:
                    29:f0:b1:62:74:7e:5c:f1:8c:4f:8b:46:c5:ee:ff:
                    a1:fe:03:16:53:0c:de:93:60:d6:36:ca:77:a2:c9:
                    0d:d3:60:a7:9e:30:fb:9f:1f:89:b0:de:7b:06:d7:
                    88:37:87:88:cc:a0:fd:fc:32:f0:59:1f:2a:25:6c:
                    a1:44:46:5f:00:fe:5a:b3:d3:88:5a:28:73:56:9f:
                    aa:46:b4:07:90:15:38:c1:79:06:99:9f:4d:b3:e5:
                    2d:38:5c:84:ce:04:1c:60:f9:10:04:e2:ec:a0:b2:
                    a4:e1:87:63:51:5f:96:9a:f3:2b:26:9d:b3:7c:49:
                    e0:a8:ac:ff:b7:54:95:8d:f6:83:4c:9c:48:aa:48:
                    98:fe:bb:70:c3:60:26:50:1f:c0:e2:46:5c:0b:82:
                    d7:6e:26:3a:81:89:4b:80:56:04:48:8f:0b:03:b2:
                    e2:6c:01:8b:60:17:09:15:a0:5b:e3:2b:3c:4f:98:
                    9c:7f:43:9b:ae:24:a1:b0:ef:29:f3:56:7c:71:79:
                    e9:e9:5d:e0:3b:bb:d3:1f:c1:12:93:f7:44:01:03:
                    41:0e:c2:a1:06:b8:dd:f5:71:5a:03:54:49:a7:9d:
                    74:31:de:c1:3d:b0:15:17:14:14:8f:3d:1d:e0:36:
                    18:ed:ed
                Exponent: 65537 (0x10001)
        X509v3 extensions:
            X509v3 Basic Constraints: critical
                CA:TRUE
            X509v3 Key Usage: critical
                Certificate Sign, CRL Sign
            X509v3 Subject Key Identifier: 
                5E:67:73:09:B7:EA:19:9B:31:64:6F:E2:47:20:00:09:11:E4:E2:43
    Signature Algorithm: sha256WithRSAEncryption
         96:27:b1:e2:d8:9f:43:c1:ac:4e:35:af:97:ed:7f:19:e1:2d:
         4c:89:a6:c2:60:34:73:28:11:c8:b0:b2:7c:0a:44:3c:60:d6:
         fb:43:22:56:73:39:35:d5:0a:28:cb:9e:b3:87:e2:73:e7:52:
         22:38:34:57:fe:6d:94:59:93:69:d5:cc:b8:25:ab:3d:d1:d7:
         fb:ed:75:01:7c:a6:1d:4a:23:eb:ac:74:f6:cf:cf:2b:29:42:
         5a:f8:0e:a0:4e:a1:59:ca:ec:af:9b:ff:ee:86:3f:03:fc:6e:
         b7:25:96:e1:20:9a:d2:5a:67:55:1a:4d:18:c9:bb:50:32:9a:
         c5:05:43:f8:0a:18:2c:54:96:50:f2:77:52:68:0c:c7:14:ec:
         a8:42:93:1a:1d:cd:a5:94:00:1f:26:ed:78:3b:95:ec:51:87:
         b8:53:0a:6f:74:5c:8e:41:91:cd:18:d5:d1:59:f2:59:ae:36:
         5b:12:e1:8e:8d:a0:90:b4:9a:cf:d7:71:59:d4:7e:d3:cc:b6:
         b9:fd:96:96:9b:93:99:41:cd:cd:3f:e5:c0:14:92:ff:25:97:
         66:1f:dc:a2:fe:97:e8:08:20:fa:8f:b5:34:ba:6f:6e:b4:6a:
         6f:1c:65:39:57:75:a9:ab:38:11:8a:4c:5b:53:d0:c0:6b:54:
         c2:56:c9:8f:8a:4b:7e:13:76:5a:e8:5f:d4:92:55:b7:fa:94:
         ea:0a:33:35:c1:87:03:ae:91:a9:b1:87:f0:45:d3:19:58:fb:
         42:c4:42:97:0c:e9:f8:82:b2:9b:2e:61:a2:93:90:2b:ea:ed:
         92:34:90:f8:e8:3c:5f:4c:f8:cd:6b:b6:8a:08:6c:62:c6:09:
         4b:92:e8:00:92:f0:cc:60:d0:07:09:7e:6b:e3:c4:50:34:c5:
         4f:f0:42:04:9d:11:ed:c4:ef:be:e3:90:ff:dc:8d:ff:39:b0:
         78:bf:85:18:96:6e:48:56:0d:9d:24:b3:90:7f:1c:f5:69:73:
         28:9f:35:de:3a:45:d7:cf:7b:31:7e:46:4d:99:47:e7:a7:d8:
         2c:54:cf:3b:bc:42:3c:da:cc:5c:17:2c:c9:92:bb:6e:d2:0d:
         3b:f6:08:09:a3:08:16:80:74:42:be:ef:b4:e0:e7:9c:67:1e:
         28:87:eb:d1:e3:c9:5b:c4:04:fd:2a:62:57:2c:a4:2a:25:b5:
         45:f8:6a:da:6b:ed:76:b5:63:60:a2:3c:c0:88:60:f4:d1:da:
         16:39:26:d4:34:6d:bb:7f:aa:0f:32:0e:0c:fb:27:3a:29:4a:
         19:3a:be:70:c0:90:7f:26:cf:9a:83:56:ef:b7:5e:89:1f:e5:
         aa:ba:1a:08:76:7d:87:b5
-----BEGIN CERTIFICATE-----
MIIFLzCCAxegAwIBAgIRAO7vB8nB+WxDG4C2t/nU7DkwDQYJKoZIhvcNAQELBQAw
MTELMAkGA1UEBhMCR0IxEDAOBgNVBAoMB0V4YW1wbGUxEDAOBgNVBAMMB1Jvb3Qg
Q0EwHhcNMTcwMzI5MDk1OTQ2WhcNMjcwMzI3MDk1OTQ2WjAxMQswCQYDVQQGEwJH
QjEQMA4GA1UECgwHRXhhbXBsZTEQMA4GA1UEAwwHUm9vdCBDQTCCAiIwDQYJKoZI
hvcNAQEBBQADggIPADCCAgoCggIBANAez8VMngihV5MNcJT1JBeJuOj1kUMpYEVy
sB6GiutmK2mAFFHDgWwHD/uO08LezX7Q6Fgw47vbIJcEJ5nOn9xNG1JRtsFuuaLQ
dujky5BRSUKoWudw9Nh8a9rrYstCYFn+hW+8YQdp0Zj7sWiTL355Hb115ynHYsWA
mm9x5p41Q4Wl8dRDmmt6SqBuZKsYQp6FXQS6vK1rhBTabaNpZNEBoaK4pOWwYF+U
aLBmQlFTgIxIKSxWPjJDXP/qZ7t9TCMdLE+DBoJPdeOYpIebwzEYQVwabTFQz7fk
PQoXoYjg7VOPuzIAkj8Z6gxwcXLHFJvd8mUzdafbyvtlM5LidOh4eDF+KSI4EB+k
sVzYKfCxYnR+XPGMT4tGxe7/of4DFlMM3pNg1jbKd6LJDdNgp54w+58fibDeewbX
iDeHiMyg/fwy8FkfKiVsoURGXwD+WrPTiFooc1afqka0B5AVOMF5BpmfTbPlLThc
hM4EHGD5EATi7KCypOGHY1FflprzKyads3xJ4Kis/7dUlY32g0ycSKpImP67cMNg
JlAfwOJGXAuC124mOoGJS4BWBEiPCwOy4mwBi2AXCRWgW+MrPE+YnH9Dm64kobDv
KfNWfHF56eld4Du70x/BEpP3RAEDQQ7CoQa43fVxWgNUSaeddDHewT2wFRcUFI89
HeA2GO3tAgMBAAGjQjBAMA8GA1UdEwEB/wQFMAMBAf8wDgYDVR0PAQH/BAQDAgEG
MB0GA1UdDgQWBBReZ3MJt+oZmzFkb+JHIAAJEeTiQzANBgkqhkiG9w0BAQsFAAOC
AgEAliex4tifQ8GsTjWvl+1/GeEtTImmwmA0cygRyLCyfApEPGDW+0MiVnM5NdUK
KMues4fic+dSIjg0V/5tlFmTadXMuCWrPdHX++11AXymHUoj66x09s/PKylCWvgO
oE6hWcrsr5v/7oY/A/xutyWW4SCa0lpnVRpNGMm7UDKaxQVD+AoYLFSWUPJ3UmgM
xxTsqEKTGh3NpZQAHybteDuV7FGHuFMKb3RcjkGRzRjV0VnyWa42WxLhjo2gkLSa
z9dxWdR+08y2uf2WlpuTmUHNzT/lwBSS/yWXZh/cov6X6Agg+o+1NLpvbrRqbxxl
OVd1qas4EYpMW1PQwGtUwlbJj4pLfhN2Wuhf1JJVt/qU6gozNcGHA66RqbGH8EXT
GVj7QsRClwzp+IKymy5hopOQK+rtkjSQ+Og8X0z4zWu2ighsYsYJS5LoAJLwzGDQ
Bwl+a+PEUDTFT/BCBJ0R7cTvvuOQ/9yN/zmweL+FGJZuSFYNnSSzkH8c9WlzKJ81
3jpF1897MX5GTZlH56fYLFTPO7xCPNrMXBcsyZK7btINO/YICaMIFoB0Qr7vtODn
nGceKIfr0ePJW8QE/SpiVyykKiW1Rfhq2mvtdrVjYKI8wIhg9NHaFjkm1DRtu3+q
DzIODPsnOilKGTq+cMCQfybPmoNW77deiR/lqroaCHZ9h7U=
-----END CERTIFICATE-----
